; <ark_bn254::fields::fq::FqConfig as ark_ff::fields::models::fp::montgomery_backend::MontConfig<4>>::into_bigint
; Function Attrs: inlinehint nounwind
define internal void @_RNvYNtNtNtCsbq6yEpNUAiz_9ark_bn2546fields2fq8FqConfigINtNtNtNtNtCsGxt5v1kvNW_6ark_ff6fields6models2fp18montgomery_backend10MontConfigKj4_E11into_bigintCs2pS0JoO3apX_4evm2(ptr dead_on_unwind noalias noundef writable sret([32 x i8]) align 8 captures(none) dereferenceable(32) %_0, ptr dead_on_return noalias noundef readonly align 8 captures(none) dereferenceable(32) %a) unnamed_addr #2 {
start:
  %_16552 = alloca [32 x i8], align 8
  %_16551 = alloca [32 x i8], align 8
  %_16550 = alloca [32 x i8], align 8
  %_16549 = alloca [32 x i8], align 8
  %_16548 = alloca [32 x i8], align 8
  %_16547 = alloca [32 x i8], align 8
  %_16546 = alloca [32 x i8], align 8
  %_16545 = alloca [32 x i8], align 8
  %_16544 = alloca [32 x i8], align 8
  %_16543 = alloca [32 x i8], align 8
  %_16542 = alloca [32 x i8], align 8
  %_16541 = alloca [32 x i8], align 8
  %_16540 = alloca [32 x i8], align 8
  %_16539 = alloca [32 x i8], align 8
  %_16538 = alloca [32 x i8], align 8
  %_16537 = alloca [32 x i8], align 8
  %_16536 = alloca [32 x i8], align 8
  %_16535 = alloca [32 x i8], align 8
  %_16534 = alloca [32 x i8], align 8
  %_16533 = alloca [32 x i8], align 8
  %_16532 = alloca [32 x i8], align 8
  %_16531 = alloca [32 x i8], align 8
  %_16530 = alloca [32 x i8], align 8
  %_16529 = alloca [32 x i8], align 8
  %_16528 = alloca [32 x i8], align 8
  %_16527 = alloca [32 x i8], align 8
  %_16526 = alloca [32 x i8], align 8
  %_16525 = alloca [32 x i8], align 8
  %_16524 = alloca [32 x i8], align 8
  %_16523 = alloca [32 x i8], align 8
  %_16522 = alloca [32 x i8], align 8
  %_16521 = alloca [32 x i8], align 8
  %_16520 = alloca [32 x i8], align 8
  %_16519 = alloca [32 x i8], align 8
  %_16518 = alloca [32 x i8], align 8
  %_16517 = alloca [32 x i8], align 8
  %_16516 = alloca [32 x i8], align 8
  %_16515 = alloca [32 x i8], align 8
  %_16514 = alloca [32 x i8], align 8
  %_16513 = alloca [32 x i8], align 8
  %_16512 = alloca [32 x i8], align 8
  %_16511 = alloca [32 x i8], align 8
  %_16510 = alloca [32 x i8], align 8
  %_16509 = alloca [32 x i8], align 8
  %_16508 = alloca [32 x i8], align 8
  %_16507 = alloca [32 x i8], align 8
  %_16506 = alloca [32 x i8], align 8
  %_16505 = alloca [32 x i8], align 8
  %_16504 = alloca [32 x i8], align 8
  %_16503 = alloca [32 x i8], align 8
  %_16502 = alloca [32 x i8], align 8
  %_16501 = alloca [32 x i8], align 8
  %_16500 = alloca [32 x i8], align 8
  %_16499 = alloca [32 x i8], align 8
  %_16498 = alloca [32 x i8], align 8
  %_16497 = alloca [32 x i8], align 8
  %_16496 = alloca [32 x i8], align 8
  %_16495 = alloca [32 x i8], align 8
  %_16494 = alloca [32 x i8], align 8
  %_16493 = alloca [32 x i8], align 8
  %_16492 = alloca [32 x i8], align 8
  %_16491 = alloca [32 x i8], align 8
  %_16490 = alloca [32 x i8], align 8
  %_16489 = alloca [32 x i8], align 8
  %_16488 = alloca [32 x i8], align 8
  %_16487 = alloca [32 x i8], align 8
  %_16486 = alloca [32 x i8], align 8
  %_16485 = alloca [32 x i8], align 8
  %_16484 = alloca [32 x i8], align 8
  %_16483 = alloca [32 x i8], align 8
  %_16482 = alloca [32 x i8], align 8
  %_16481 = alloca [32 x i8], align 8
  %_16480 = alloca [32 x i8], align 8
  %_16479 = alloca [32 x i8], align 8
  %_16478 = alloca [32 x i8], align 8
  %_16477 = alloca [32 x i8], align 8
  %_16476 = alloca [32 x i8], align 8
  %_16475 = alloca [32 x i8], align 8
  %_16474 = alloca [32 x i8], align 8
  %_16473 = alloca [32 x i8], align 8
  %_16472 = alloca [32 x i8], align 8
  %_16471 = alloca [32 x i8], align 8
  %_16470 = alloca [32 x i8], align 8
  %_16469 = alloca [32 x i8], align 8
  %_16468 = alloca [32 x i8], align 8
  %_16467 = alloca [32 x i8], align 8
  %_16466 = alloca [32 x i8], align 8
  %_16465 = alloca [32 x i8], align 8
  %_16464 = alloca [32 x i8], align 8
  %_16463 = alloca [32 x i8], align 8
  %_16462 = alloca [32 x i8], align 8
  %_16461 = alloca [32 x i8], align 8
  %_16460 = alloca [32 x i8], align 8
  %_16459 = alloca [32 x i8], align 8
  %_16458 = alloca [32 x i8], align 8
  %_16457 = alloca [32 x i8], align 8
  %_16456 = alloca [32 x i8], align 8
  %_16455 = alloca [32 x i8], align 8
  %_16454 = alloca [32 x i8], align 8
  %_16453 = alloca [32 x i8], align 8
  %_16452 = alloca [32 x i8], align 8
  %_16451 = alloca [32 x i8], align 8
  %_16450 = alloca [32 x i8], align 8
  %_16449 = alloca [32 x i8], align 8
  %_16448 = alloca [32 x i8], align 8
  %_16447 = alloca [32 x i8], align 8
  %_16446 = alloca [32 x i8], align 8
  %_16445 = alloca [32 x i8], align 8
  %_16444 = alloca [32 x i8], align 8
  %_16443 = alloca [32 x i8], align 8
  %_16442 = alloca [32 x i8], align 8
  %_16441 = alloca [32 x i8], align 8
  %_16440 = alloca [32 x i8], align 8
  %_16439 = alloca [32 x i8], align 8
  %_16438 = alloca [32 x i8], align 8
  %_16437 = alloca [32 x i8], align 8
  %_16436 = alloca [32 x i8], align 8
  %_16435 = alloca [32 x i8], align 8
  %_16434 = alloca [32 x i8], align 8
  %_16433 = alloca [32 x i8], align 8
  %_16432 = alloca [32 x i8], align 8
  %_16431 = alloca [32 x i8], align 8
  %_16430 = alloca [32 x i8], align 8
  %_16429 = alloca [32 x i8], align 8
  %_16428 = alloca [32 x i8], align 8
  %_16427 = alloca [32 x i8], align 8
  %_16426 = alloca [32 x i8], align 8
  %_16425 = alloca [32 x i8], align 8
  %_16424 = alloca [32 x i8], align 8
  %_16423 = alloca [32 x i8], align 8
  %_16422 = alloca [32 x i8], align 8
  %_16421 = alloca [32 x i8], align 8
  %_16420 = alloca [32 x i8], align 8
  %_16419 = alloca [32 x i8], align 8
  %_16418 = alloca [32 x i8], align 8
  %_16417 = alloca [32 x i8], align 8
  %_16416 = alloca [32 x i8], align 8
  %_16415 = alloca [32 x i8], align 8
  %_16414 = alloca [32 x i8], align 8
  %_16413 = alloca [32 x i8], align 8
  %_16412 = alloca [32 x i8], align 8
  %_16411 = alloca [32 x i8], align 8
  %_16410 = alloca [32 x i8], align 8
  %_16409 = alloca [32 x i8], align 8
  %_16408 = alloca [32 x i8], align 8
  %_16407 = alloca [32 x i8], align 8
  %_16406 = alloca [32 x i8], align 8
  %_16405 = alloca [32 x i8], align 8
  %_16404 = alloca [32 x i8], align 8
  %_16403 = alloca [32 x i8], align 8
  %_16402 = alloca [32 x i8], align 8
  %_16401 = alloca [32 x i8], align 8
  %_16400 = alloca [32 x i8], align 8
  %_16399 = alloca [32 x i8], align 8
  %_16398 = alloca [32 x i8], align 8
  %_16397 = alloca [32 x i8], align 8
  %_16396 = alloca [32 x i8], align 8
  %_16395 = alloca [32 x i8], align 8
  %_16394 = alloca [32 x i8], align 8
  %_16393 = alloca [32 x i8], align 8
  %_16392 = alloca [32 x i8], align 8
  %_16391 = alloca [32 x i8], align 8
  %_16390 = alloca [32 x i8], align 8
  %_16389 = alloca [32 x i8], align 8
  %_16388 = alloca [32 x i8], align 8
  %_16387 = alloca [32 x i8], align 8
  %_16386 = alloca [32 x i8], align 8
  %_16385 = alloca [32 x i8], align 8
  %_16384 = alloca [32 x i8], align 8
  %_16383 = alloca [32 x i8], align 8
  %_16382 = alloca [32 x i8], align 8
  %_16381 = alloca [32 x i8], align 8
  %_16380 = alloca [32 x i8], align 8
  %_16379 = alloca [32 x i8], align 8
  %_16378 = alloca [32 x i8], align 8
  %_16377 = alloca [32 x i8], align 8
  %_16376 = alloca [32 x i8], align 8
  %_16375 = alloca [32 x i8], align 8
  %_16374 = alloca [32 x i8], align 8
  %_16373 = alloca [32 x i8], align 8
  %_16372 = alloca [32 x i8], align 8
  %_16371 = alloca [32 x i8], align 8
  %_16370 = alloca [32 x i8], align 8
  %_16369 = alloca [32 x i8], align 8
  %_16368 = alloca [32 x i8], align 8
  %_16367 = alloca [32 x i8], align 8
  %_16366 = alloca [32 x i8], align 8
  %_16365 = alloca [32 x i8], align 8
  %_16364 = alloca [32 x i8], align 8
  %_16363 = alloca [32 x i8], align 8
  %_16362 = alloca [32 x i8], align 8
  %_16361 = alloca [32 x i8], align 8
  %_16360 = alloca [32 x i8], align 8
  %_16359 = alloca [32 x i8], align 8
  %_16358 = alloca [32 x i8], align 8
  %_16357 = alloca [32 x i8], align 8
  %_16356 = alloca [32 x i8], align 8
  %_16355 = alloca [32 x i8], align 8
  %_16354 = alloca [32 x i8], align 8
  %_16353 = alloca [32 x i8], align 8
  %_16352 = alloca [32 x i8], align 8
  %_16351 = alloca [32 x i8], align 8
  %_16350 = alloca [32 x i8], align 8
  %_16349 = alloca [32 x i8], align 8
  %_16348 = alloca [32 x i8], align 8
  %_16347 = alloca [32 x i8], align 8
  %_16346 = alloca [32 x i8], align 8
  %_16345 = alloca [32 x i8], align 8
  %_16344 = alloca [32 x i8], align 8
  %_16343 = alloca [32 x i8], align 8
  %_16342 = alloca [32 x i8], align 8
  %_16341 = alloca [32 x i8], align 8
  %_16340 = alloca [32 x i8], align 8
  %_16339 = alloca [32 x i8], align 8
  %_16338 = alloca [32 x i8], align 8
  %_16337 = alloca [32 x i8], align 8
  %_16336 = alloca [32 x i8], align 8
  %_16335 = alloca [32 x i8], align 8
  %_16334 = alloca [32 x i8], align 8
  %_16333 = alloca [32 x i8], align 8
  %_16332 = alloca [32 x i8], align 8
  %_16331 = alloca [32 x i8], align 8
  %_16330 = alloca [32 x i8], align 8
  %_16329 = alloca [32 x i8], align 8
  %_16328 = alloca [32 x i8], align 8
  %_16327 = alloca [32 x i8], align 8
  %_16326 = alloca [32 x i8], align 8
  %_16325 = alloca [32 x i8], align 8
  %_16324 = alloca [32 x i8], align 8
  %_16323 = alloca [32 x i8], align 8
  %_16322 = alloca [32 x i8], align 8
  %_16321 = alloca [32 x i8], align 8
  %_16320 = alloca [32 x i8], align 8
  %_16319 = alloca [32 x i8], align 8
  %_16318 = alloca [32 x i8], align 8
  %_16317 = alloca [32 x i8], align 8
  %_16316 = alloca [32 x i8], align 8
  %_16315 = alloca [32 x i8], align 8
  %_16314 = alloca [32 x i8], align 8
  %_16313 = alloca [32 x i8], align 8
  %_16312 = alloca [32 x i8], align 8
  %_16311 = alloca [32 x i8], align 8
  %_16310 = alloca [32 x i8], align 8
  %_16309 = alloca [32 x i8], align 8
  %_16308 = alloca [32 x i8], align 8
  %_16307 = alloca [32 x i8], align 8
  %_16306 = alloca [32 x i8], align 8
  %_16305 = alloca [32 x i8], align 8
  %_16304 = alloca [32 x i8], align 8
  %_16303 = alloca [32 x i8], align 8
  %_16302 = alloca [32 x i8], align 8
  %_16301 = alloca [32 x i8], align 8
  %_16300 = alloca [32 x i8], align 8
  %_16299 = alloca [32 x i8], align 8
  %_16298 = alloca [32 x i8], align 8
  %_16297 = alloca [32 x i8], align 8
  %_16296 = alloca [32 x i8], align 8
  %_16295 = alloca [32 x i8], align 8
  %_16294 = alloca [32 x i8], align 8
  %_16293 = alloca [32 x i8], align 8
  %_16292 = alloca [32 x i8], align 8
  %_16291 = alloca [32 x i8], align 8
  %_16290 = alloca [32 x i8], align 8
  %_16289 = alloca [32 x i8], align 8
  %_16288 = alloca [32 x i8], align 8
  %_16287 = alloca [32 x i8], align 8
  %_16286 = alloca [32 x i8], align 8
  %_16285 = alloca [32 x i8], align 8
  %_16284 = alloca [32 x i8], align 8
  %_16283 = alloca [32 x i8], align 8
  %_16282 = alloca [32 x i8], align 8
  %_16281 = alloca [32 x i8], align 8
  %_16280 = alloca [32 x i8], align 8
  %_16279 = alloca [32 x i8], align 8
  %_16278 = alloca [32 x i8], align 8
  %_16277 = alloca [32 x i8], align 8
  %_16276 = alloca [32 x i8], align 8
  %_16275 = alloca [32 x i8], align 8
  %_16274 = alloca [32 x i8], align 8
  %_16273 = alloca [32 x i8], align 8
  %_16272 = alloca [32 x i8], align 8
  %_16271 = alloca [32 x i8], align 8
  %_16270 = alloca [32 x i8], align 8
  %_16269 = alloca [32 x i8], align 8
  %_16268 = alloca [32 x i8], align 8
  %_16267 = alloca [32 x i8], align 8
  %_16266 = alloca [32 x i8], align 8
  %_16265 = alloca [32 x i8], align 8
  %_16264 = alloca [32 x i8], align 8
  %_16263 = alloca [32 x i8], align 8
  %_16262 = alloca [32 x i8], align 8
  %_16261 = alloca [32 x i8], align 8
  %_16260 = alloca [32 x i8], align 8
  %_16259 = alloca [32 x i8], align 8
  %_16258 = alloca [32 x i8], align 8
  %_16257 = alloca [32 x i8], align 8
  %_16256 = alloca [32 x i8], align 8
  %_16255 = alloca [32 x i8], align 8
  %_16254 = alloca [32 x i8], align 8
  %_16253 = alloca [32 x i8], align 8
  %_16252 = alloca [32 x i8], align 8
  %_16251 = alloca [32 x i8], align 8
  %_16250 = alloca [32 x i8], align 8
  %_16249 = alloca [32 x i8], align 8
  %_16248 = alloca [32 x i8], align 8
  %_16247 = alloca [32 x i8], align 8
  %_16246 = alloca [32 x i8], align 8
  %_16245 = alloca [32 x i8], align 8
  %_16244 = alloca [32 x i8], align 8
  %_16243 = alloca [32 x i8], align 8
  %_16242 = alloca [32 x i8], align 8
  %_16241 = alloca [32 x i8], align 8
  %_16240 = alloca [32 x i8], align 8
  %_16239 = alloca [32 x i8], align 8
  %_16238 = alloca [32 x i8], align 8
  %_16237 = alloca [32 x i8], align 8
  %_16236 = alloca [32 x i8], align 8
  %_16235 = alloca [32 x i8], align 8
  %_16234 = alloca [32 x i8], align 8
  %_16233 = alloca [32 x i8], align 8
  %_16232 = alloca [32 x i8], align 8
  %_16231 = alloca [32 x i8], align 8
  %_16230 = alloca [32 x i8], align 8
  %_16229 = alloca [32 x i8], align 8
  %_16228 = alloca [32 x i8], align 8
  %_16227 = alloca [32 x i8], align 8
  %_16226 = alloca [32 x i8], align 8
  %_16225 = alloca [32 x i8], align 8
  %_16224 = alloca [32 x i8], align 8
  %_16223 = alloca [32 x i8], align 8
  %_16222 = alloca [32 x i8], align 8
  %_16221 = alloca [32 x i8], align 8
  %_16220 = alloca [32 x i8], align 8
  %_16219 = alloca [32 x i8], align 8
  %_16218 = alloca [32 x i8], align 8
  %_16217 = alloca [32 x i8], align 8
  %_16216 = alloca [32 x i8], align 8
  %_16215 = alloca [32 x i8], align 8
  %_16214 = alloca [32 x i8], align 8
  %_16213 = alloca [32 x i8], align 8
  %_16212 = alloca [32 x i8], align 8
  %_16211 = alloca [32 x i8], align 8
  %_16210 = alloca [32 x i8], align 8
  %_16209 = alloca [32 x i8], align 8
  %_16208 = alloca [32 x i8], align 8
  %_16207 = alloca [32 x i8], align 8
  %_16206 = alloca [32 x i8], align 8
  %_16205 = alloca [32 x i8], align 8
  %_16204 = alloca [32 x i8], align 8
  %_16203 = alloca [32 x i8], align 8
  %_16202 = alloca [32 x i8], align 8
  %_16201 = alloca [32 x i8], align 8
  %_16200 = alloca [32 x i8], align 8
  %_16199 = alloca [32 x i8], align 8
  %_16198 = alloca [32 x i8], align 8
  %_16197 = alloca [32 x i8], align 8
  %_16196 = alloca [32 x i8], align 8
  %_16195 = alloca [32 x i8], align 8
  %_16194 = alloca [32 x i8], align 8
  %_16193 = alloca [32 x i8], align 8
  %_16192 = alloca [32 x i8], align 8
  %_16191 = alloca [32 x i8], align 8
  %_16190 = alloca [32 x i8], align 8
  %_16189 = alloca [32 x i8], align 8
  %_16188 = alloca [32 x i8], align 8
  %_16187 = alloca [32 x i8], align 8
  %_16186 = alloca [32 x i8], align 8
  %_16185 = alloca [32 x i8], align 8
  %_16184 = alloca [32 x i8], align 8
  %_16183 = alloca [32 x i8], align 8
  %_16182 = alloca [32 x i8], align 8
  %_16181 = alloca [32 x i8], align 8
  %_16180 = alloca [32 x i8], align 8
  %_16179 = alloca [32 x i8], align 8
  %_16178 = alloca [32 x i8], align 8
  %_16177 = alloca [32 x i8], align 8
  %_16176 = alloca [32 x i8], align 8
  %_16175 = alloca [32 x i8], align 8
  %_16174 = alloca [32 x i8], align 8
  %_16173 = alloca [32 x i8], align 8
  %_16172 = alloca [32 x i8], align 8
  %_16171 = alloca [32 x i8], align 8
  %_16170 = alloca [32 x i8], align 8
  %_16169 = alloca [32 x i8], align 8
  %_16168 = alloca [32 x i8], align 8
  %_16167 = alloca [32 x i8], align 8
  %_16166 = alloca [32 x i8], align 8
  %_16165 = alloca [32 x i8], align 8
  %_16164 = alloca [32 x i8], align 8
  %_16163 = alloca [32 x i8], align 8
  %_16162 = alloca [32 x i8], align 8
  %_16161 = alloca [32 x i8], align 8
  %_16160 = alloca [32 x i8], align 8
  %_16159 = alloca [32 x i8], align 8
  %_16158 = alloca [32 x i8], align 8
  %_16157 = alloca [32 x i8], align 8
  %_16156 = alloca [32 x i8], align 8
  %_16155 = alloca [32 x i8], align 8
  %_16154 = alloca [32 x i8], align 8
  %_16153 = alloca [32 x i8], align 8
  %_16152 = alloca [32 x i8], align 8
  %_16151 = alloca [32 x i8], align 8
  %_16150 = alloca [32 x i8], align 8
  %_16149 = alloca [32 x i8], align 8
  %_16148 = alloca [32 x i8], align 8
  %_16147 = alloca [32 x i8], align 8
  %_16146 = alloca [32 x i8], align 8
  %_16145 = alloca [32 x i8], align 8
  %_16144 = alloca [32 x i8], align 8
  %_16143 = alloca [32 x i8], align 8
  %_16142 = alloca [32 x i8], align 8
  %_16141 = alloca [32 x i8], align 8
  %_16140 = alloca [32 x i8], align 8
  %_16139 = alloca [32 x i8], align 8
  %_16138 = alloca [32 x i8], align 8
  %_16137 = alloca [32 x i8], align 8
  %_16136 = alloca [32 x i8], align 8
  %_16135 = alloca [32 x i8], align 8
  %_16134 = alloca [32 x i8], align 8
  %_16133 = alloca [32 x i8], align 8
  %_16132 = alloca [32 x i8], align 8
  %_16131 = alloca [32 x i8], align 8
  %_16130 = alloca [32 x i8], align 8
  %_16129 = alloca [32 x i8], align 8
  %_16128 = alloca [32 x i8], align 8
  %_16127 = alloca [32 x i8], align 8
  %_16126 = alloca [32 x i8], align 8
  %_16125 = alloca [32 x i8], align 8
  %_16124 = alloca [32 x i8], align 8
  %_16123 = alloca [32 x i8], align 8
  %_16122 = alloca [32 x i8], align 8
  %_16121 = alloca [32 x i8], align 8
  %_16120 = alloca [32 x i8], align 8
  %_16119 = alloca [32 x i8], align 8
  %_16118 = alloca [32 x i8], align 8
  %_16117 = alloca [32 x i8], align 8
  %_16116 = alloca [32 x i8], align 8
  %_16115 = alloca [32 x i8], align 8
  %_16114 = alloca [32 x i8], align 8
  %_16113 = alloca [32 x i8], align 8
  %_16112 = alloca [32 x i8], align 8
  %_16111 = alloca [32 x i8], align 8
  %_16110 = alloca [32 x i8], align 8
  %_16109 = alloca [32 x i8], align 8
  %_16108 = alloca [32 x i8], align 8
  %_16107 = alloca [32 x i8], align 8
  %_16106 = alloca [32 x i8], align 8
  %_16105 = alloca [32 x i8], align 8
  %_16104 = alloca [32 x i8], align 8
  %_16103 = alloca [32 x i8], align 8
  %_16102 = alloca [32 x i8], align 8
  %_16101 = alloca [32 x i8], align 8
  %_16100 = alloca [32 x i8], align 8
  %_16099 = alloca [32 x i8], align 8
  %_16098 = alloca [32 x i8], align 8
  %_16097 = alloca [32 x i8], align 8
  %_16096 = alloca [32 x i8], align 8
  %_16095 = alloca [32 x i8], align 8
  %_16094 = alloca [32 x i8], align 8
  %_16093 = alloca [32 x i8], align 8
  %_16092 = alloca [32 x i8], align 8
  %_16091 = alloca [32 x i8], align 8
  %_16090 = alloca [32 x i8], align 8
  %_16089 = alloca [32 x i8], align 8
  %_16088 = alloca [32 x i8], align 8
  %_16087 = alloca [32 x i8], align 8
  %_16086 = alloca [32 x i8], align 8
  %_16085 = alloca [32 x i8], align 8
  %_16084 = alloca [32 x i8], align 8
  %_16083 = alloca [32 x i8], align 8
  %_16082 = alloca [32 x i8], align 8
  %_16081 = alloca [32 x i8], align 8
  %_16080 = alloca [32 x i8], align 8
  %_16079 = alloca [32 x i8], align 8
  %_16078 = alloca [32 x i8], align 8
  %_16077 = alloca [32 x i8], align 8
  %_16076 = alloca [32 x i8], align 8
  %_16075 = alloca [32 x i8], align 8
  %_16074 = alloca [32 x i8], align 8
  %_16073 = alloca [32 x i8], align 8
  %_16072 = alloca [32 x i8], align 8
  %_16071 = alloca [32 x i8], align 8
  %_16070 = alloca [32 x i8], align 8
  %_16069 = alloca [32 x i8], align 8
  %_16068 = alloca [32 x i8], align 8
  %_16067 = alloca [32 x i8], align 8
  %_16066 = alloca [32 x i8], align 8
  %_16065 = alloca [32 x i8], align 8
  %_16064 = alloca [32 x i8], align 8
  %_16063 = alloca [32 x i8], align 8
  %_16062 = alloca [32 x i8], align 8
  %_16061 = alloca [32 x i8], align 8
  %_16060 = alloca [32 x i8], align 8
  %_16059 = alloca [32 x i8], align 8
  %_16058 = alloca [32 x i8], align 8
  %_16057 = alloca [32 x i8], align 8
  %_16056 = alloca [32 x i8], align 8
  %_16055 = alloca [32 x i8], align 8
  %_16054 = alloca [32 x i8], align 8
  %_16053 = alloca [32 x i8], align 8
  %_16052 = alloca [32 x i8], align 8
  %_16051 = alloca [32 x i8], align 8
  %_16050 = alloca [32 x i8], align 8
  %_16049 = alloca [32 x i8], align 8
  %_16048 = alloca [32 x i8], align 8
  %_16047 = alloca [32 x i8], align 8
  %_16046 = alloca [32 x i8], align 8
  %_16045 = alloca [32 x i8], align 8
  %_16044 = alloca [32 x i8], align 8
  %_16043 = alloca [32 x i8], align 8
  %_16042 = alloca [32 x i8], align 8
  %_16041 = alloca [32 x i8], align 8
  %_16040 = alloca [32 x i8], align 8
  %_16039 = alloca [32 x i8], align 8
  %_16038 = alloca [32 x i8], align 8
  %_16037 = alloca [32 x i8], align 8
  %_16036 = alloca [32 x i8], align 8
  %_16035 = alloca [32 x i8], align 8
  %_16034 = alloca [32 x i8], align 8
  %_16033 = alloca [32 x i8], align 8
  %_16032 = alloca [32 x i8], align 8
  %_16031 = alloca [32 x i8], align 8
  %_16030 = alloca [32 x i8], align 8
  %_16029 = alloca [32 x i8], align 8
  %_16028 = alloca [32 x i8], align 8
  %_16027 = alloca [32 x i8], align 8
  %_16026 = alloca [32 x i8], align 8
  %_16025 = alloca [32 x i8], align 8
  %_16024 = alloca [32 x i8], align 8
  %_16023 = alloca [32 x i8], align 8
  %_16022 = alloca [32 x i8], align 8
  %_16021 = alloca [32 x i8], align 8
  %_16020 = alloca [32 x i8], align 8
  %_16019 = alloca [32 x i8], align 8
  %_16018 = alloca [32 x i8], align 8
  %_16017 = alloca [32 x i8], align 8
  %_16016 = alloca [32 x i8], align 8
  %_16015 = alloca [32 x i8], align 8
  %_16014 = alloca [32 x i8], align 8
  %_16013 = alloca [32 x i8], align 8
  %_16012 = alloca [32 x i8], align 8
  %_16011 = alloca [32 x i8], align 8
  %_16010 = alloca [32 x i8], align 8
  %_16009 = alloca [32 x i8], align 8
  %_16008 = alloca [32 x i8], align 8
  %_16007 = alloca [32 x i8], align 8
  %_16006 = alloca [32 x i8], align 8
  %_16005 = alloca [32 x i8], align 8
  %_16004 = alloca [32 x i8], align 8
  %_16003 = alloca [32 x i8], align 8
  %_16002 = alloca [32 x i8], align 8
  %_16001 = alloca [32 x i8], align 8
  %_16000 = alloca [32 x i8], align 8
  %_15999 = alloca [32 x i8], align 8
  %_15998 = alloca [32 x i8], align 8
  %_15997 = alloca [32 x i8], align 8
  %_15996 = alloca [32 x i8], align 8
  %_15995 = alloca [32 x i8], align 8
  %_15994 = alloca [32 x i8], align 8
  %_15993 = alloca [32 x i8], align 8
  %_15992 = alloca [32 x i8], align 8
  %_15991 = alloca [32 x i8], align 8
  %_15990 = alloca [32 x i8], align 8
  %_15989 = alloca [32 x i8], align 8
  %_15988 = alloca [32 x i8], align 8
  %_15987 = alloca [32 x i8], align 8
  %_15986 = alloca [32 x i8], align 8
  %_15985 = alloca [32 x i8], align 8
  %_15984 = alloca [32 x i8], align 8
  %_15983 = alloca [32 x i8], align 8
  %_15982 = alloca [32 x i8], align 8
  %_15981 = alloca [32 x i8], align 8
  %_15980 = alloca [32 x i8], align 8
  %_15979 = alloca [32 x i8], align 8
  %_15978 = alloca [32 x i8], align 8
  %_15977 = alloca [32 x i8], align 8
  %_15976 = alloca [32 x i8], align 8
  %_15975 = alloca [32 x i8], align 8
  %_15974 = alloca [32 x i8], align 8
  %_15973 = alloca [32 x i8], align 8
  %_15972 = alloca [32 x i8], align 8
  %_15971 = alloca [32 x i8], align 8
  %_15970 = alloca [32 x i8], align 8
  %_15969 = alloca [32 x i8], align 8
  %_15968 = alloca [32 x i8], align 8
  %_15967 = alloca [32 x i8], align 8
  %_15966 = alloca [32 x i8], align 8
  %_15965 = alloca [32 x i8], align 8
  %_15964 = alloca [32 x i8], align 8
  %_15963 = alloca [32 x i8], align 8
  %_15962 = alloca [32 x i8], align 8
  %_15961 = alloca [32 x i8], align 8
  %_15960 = alloca [32 x i8], align 8
  %_15959 = alloca [32 x i8], align 8
  %_15958 = alloca [32 x i8], align 8
  %_15957 = alloca [32 x i8], align 8
  %_15956 = alloca [32 x i8], align 8
  %_15955 = alloca [32 x i8], align 8
  %_15954 = alloca [32 x i8], align 8
  %_15953 = alloca [32 x i8], align 8
  %iter119 = alloca [8 x i8], align 8
  %iter118 = alloca [8 x i8], align 8
  %iter117 = alloca [8 x i8], align 8
  %iter116 = alloca [8 x i8], align 8
  %iter115 = alloca [8 x i8], align 8
  %iter114 = alloca [8 x i8], align 8
  %iter113 = alloca [8 x i8], align 8
  %iter112 = alloca [8 x i8], align 8
  %iter111 = alloca [8 x i8], align 8
  %iter110 = alloca [8 x i8], align 8
  %iter109 = alloca [8 x i8], align 8
  %iter108 = alloca [8 x i8], align 8
  %iter107 = alloca [8 x i8], align 8
  %iter106 = alloca [8 x i8], align 8
  %iter105 = alloca [8 x i8], align 8
  %iter104 = alloca [8 x i8], align 8
  %iter103 = alloca [8 x i8], align 8
  %iter102 = alloca [8 x i8], align 8
  %iter101 = alloca [8 x i8], align 8
  %iter100 = alloca [8 x i8], align 8
  %iter99 = alloca [8 x i8], align 8
  %iter98 = alloca [8 x i8], align 8
  %iter97 = alloca [8 x i8], align 8
  %iter96 = alloca [8 x i8], align 8
  %iter = alloca [8 x i8], align 8
  %_11570 = alloca [32 x i8], align 8
  %_11551 = alloca [32 x i8], align 8
  %_11532 = alloca [32 x i8], align 8
  %_11513 = alloca [32 x i8], align 8
  %_11494 = alloca [32 x i8], align 8
  %_11475 = alloca [32 x i8], align 8
  %_11456 = alloca [32 x i8], align 8
  %_11437 = alloca [32 x i8], align 8
  %_11418 = alloca [32 x i8], align 8
  %_11399 = alloca [32 x i8], align 8
  %_11380 = alloca [32 x i8], align 8
  %_11361 = alloca [32 x i8], align 8
  %j95 = alloca [8 x i8], align 8
  %_11340 = alloca [32 x i8], align 8
  %_11321 = alloca [32 x i8], align 8
  %_11302 = alloca [32 x i8], align 8
  %_11283 = alloca [32 x i8], align 8
  %_11264 = alloca [32 x i8], align 8
  %_11245 = alloca [32 x i8], align 8
  %_11226 = alloca [32 x i8], align 8
  %_11207 = alloca [32 x i8], align 8
  %_11188 = alloca [32 x i8], align 8
  %_11169 = alloca [32 x i8], align 8
  %_11150 = alloca [32 x i8], align 8
  %_11131 = alloca [32 x i8], align 8
  %j94 = alloca [8 x i8], align 8
  %_11116 = alloca [16 x i8], align 8
  %_11112 = alloca [16 x i8], align 8
  %total_iters93 = alloca [8 x i8], align 8
  %_11109 = alloca [32 x i8], align 8
  %carry92 = alloca [8 x i8], align 8
  %_11088 = alloca [32 x i8], align 8
  %_11069 = alloca [32 x i8], align 8
  %_11050 = alloca [32 x i8], align 8
  %_11031 = alloca [32 x i8], align 8
  %_11012 = alloca [32 x i8], align 8
  %_10993 = alloca [32 x i8], align 8
  %_10974 = alloca [32 x i8], align 8
  %_10955 = alloca [32 x i8], align 8
  %_10936 = alloca [32 x i8], align 8
  %_10917 = alloca [32 x i8], align 8
  %_10898 = alloca [32 x i8], align 8
  %_10879 = alloca [32 x i8], align 8
  %j91 = alloca [8 x i8], align 8
  %_10858 = alloca [32 x i8], align 8
  %_10839 = alloca [32 x i8], align 8
  %_10820 = alloca [32 x i8], align 8
  %_10801 = alloca [32 x i8], align 8
  %_10782 = alloca [32 x i8], align 8
  %_10763 = alloca [32 x i8], align 8
  %_10744 = alloca [32 x i8], align 8
  %_10725 = alloca [32 x i8], align 8
  %_10706 = alloca [32 x i8], align 8
  %_10687 = alloca [32 x i8], align 8
  %_10668 = alloca [32 x i8], align 8
  %_10649 = alloca [32 x i8], align 8
  %j90 = alloca [8 x i8], align 8
  %_10634 = alloca [16 x i8], align 8
  %_10630 = alloca [16 x i8], align 8
  %total_iters89 = alloca [8 x i8], align 8
  %_10627 = alloca [32 x i8], align 8
  %carry88 = alloca [8 x i8], align 8
  %_10606 = alloca [32 x i8], align 8
  %_10587 = alloca [32 x i8], align 8
  %_10568 = alloca [32 x i8], align 8
  %_10549 = alloca [32 x i8], align 8
  %_10530 = alloca [32 x i8], align 8
  %_10511 = alloca [32 x i8], align 8
  %_10492 = alloca [32 x i8], align 8
  %_10473 = alloca [32 x i8], align 8
  %_10454 = alloca [32 x i8], align 8
  %_10435 = alloca [32 x i8], align 8
  %_10416 = alloca [32 x i8], align 8
  %_10397 = alloca [32 x i8], align 8
  %j87 = alloca [8 x i8], align 8
  %_10376 = alloca [32 x i8], align 8
  %_10357 = alloca [32 x i8], align 8
  %_10338 = alloca [32 x i8], align 8
  %_10319 = alloca [32 x i8], align 8
  %_10300 = alloca [32 x i8], align 8
  %_10281 = alloca [32 x i8], align 8
  %_10262 = alloca [32 x i8], align 8
  %_10243 = alloca [32 x i8], align 8
  %_10224 = alloca [32 x i8], align 8
  %_10205 = alloca [32 x i8], align 8
  %_10186 = alloca [32 x i8], align 8
  %_10167 = alloca [32 x i8], align 8
  %j86 = alloca [8 x i8], align 8
  %_10152 = alloca [16 x i8], align 8
  %_10148 = alloca [16 x i8], align 8
  %total_iters85 = alloca [8 x i8], align 8
  %_10145 = alloca [32 x i8], align 8
  %carry84 = alloca [8 x i8], align 8
  %_10124 = alloca [32 x i8], align 8
  %_10105 = alloca [32 x i8], align 8
  %_10086 = alloca [32 x i8], align 8
  %_10067 = alloca [32 x i8], align 8
  %_10048 = alloca [32 x i8], align 8
  %_10029 = alloca [32 x i8], align 8
  %_10010 = alloca [32 x i8], align 8
  %_9991 = alloca [32 x i8], align 8
  %_9972 = alloca [32 x i8], align 8
  %_9953 = alloca [32 x i8], align 8
  %_9934 = alloca [32 x i8], align 8
  %_9915 = alloca [32 x i8], align 8
  %j83 = alloca [8 x i8], align 8
  %_9894 = alloca [32 x i8], align 8
  %_9875 = alloca [32 x i8], align 8
  %_9856 = alloca [32 x i8], align 8
  %_9837 = alloca [32 x i8], align 8
  %_9818 = alloca [32 x i8], align 8
  %_9799 = alloca [32 x i8], align 8
  %_9780 = alloca [32 x i8], align 8
  %_9761 = alloca [32 x i8], align 8
  %_9742 = alloca [32 x i8], align 8
  %_9723 = alloca [32 x i8], align 8
  %_9704 = alloca [32 x i8], align 8
  %_9685 = alloca [32 x i8], align 8
  %j82 = alloca [8 x i8], align 8
  %_9670 = alloca [16 x i8], align 8
  %_9666 = alloca [16 x i8], align 8
  %total_iters81 = alloca [8 x i8], align 8
  %_9663 = alloca [32 x i8], align 8
  %carry80 = alloca [8 x i8], align 8
  %_9642 = alloca [32 x i8], align 8
  %_9623 = alloca [32 x i8], align 8
  %_9604 = alloca [32 x i8], align 8
  %_9585 = alloca [32 x i8], align 8
  %_9566 = alloca [32 x i8], align 8
  %_9547 = alloca [32 x i8], align 8
  %_9528 = alloca [32 x i8], align 8
  %_9509 = alloca [32 x i8], align 8
  %_9490 = alloca [32 x i8], align 8
  %_9471 = alloca [32 x i8], align 8
  %_9452 = alloca [32 x i8], align 8
  %_9433 = alloca [32 x i8], align 8
  %j79 = alloca [8 x i8], align 8
  %_9412 = alloca [32 x i8], align 8
  %_9393 = alloca [32 x i8], align 8
  %_9374 = alloca [32 x i8], align 8
  %_9355 = alloca [32 x i8], align 8
  %_9336 = alloca [32 x i8], align 8
  %_9317 = alloca [32 x i8], align 8
  %_9298 = alloca [32 x i8], align 8
  %_9279 = alloca [32 x i8], align 8
  %_9260 = alloca [32 x i8], align 8
  %_9241 = alloca [32 x i8], align 8
  %_9222 = alloca [32 x i8], align 8
  %_9203 = alloca [32 x i8], align 8
  %j78 = alloca [8 x i8], align 8
  %_9188 = alloca [16 x i8], align 8
  %_9184 = alloca [16 x i8], align 8
  %total_iters77 = alloca [8 x i8], align 8
  %_9181 = alloca [32 x i8], align 8
  %carry76 = alloca [8 x i8], align 8
  %_9160 = alloca [32 x i8], align 8
  %_9141 = alloca [32 x i8], align 8
  %_9122 = alloca [32 x i8], align 8
  %_9103 = alloca [32 x i8], align 8
  %_9084 = alloca [32 x i8], align 8
  %_9065 = alloca [32 x i8], align 8
  %_9046 = alloca [32 x i8], align 8
  %_9027 = alloca [32 x i8], align 8
  %_9008 = alloca [32 x i8], align 8
  %_8989 = alloca [32 x i8], align 8
  %_8970 = alloca [32 x i8], align 8
  %_8951 = alloca [32 x i8], align 8
  %j75 = alloca [8 x i8], align 8
  %_8930 = alloca [32 x i8], align 8
  %_8911 = alloca [32 x i8], align 8
  %_8892 = alloca [32 x i8], align 8
  %_8873 = alloca [32 x i8], align 8
  %_8854 = alloca [32 x i8], align 8
  %_8835 = alloca [32 x i8], align 8
  %_8816 = alloca [32 x i8], align 8
  %_8797 = alloca [32 x i8], align 8
  %_8778 = alloca [32 x i8], align 8
  %_8759 = alloca [32 x i8], align 8
  %_8740 = alloca [32 x i8], align 8
  %_8721 = alloca [32 x i8], align 8
  %j74 = alloca [8 x i8], align 8
  %_8706 = alloca [16 x i8], align 8
  %_8702 = alloca [16 x i8], align 8
  %total_iters73 = alloca [8 x i8], align 8
  %_8699 = alloca [32 x i8], align 8
  %carry72 = alloca [8 x i8], align 8
  %_8678 = alloca [32 x i8], align 8
  %_8659 = alloca [32 x i8], align 8
  %_8640 = alloca [32 x i8], align 8
  %_8621 = alloca [32 x i8], align 8
  %_8602 = alloca [32 x i8], align 8
  %_8583 = alloca [32 x i8], align 8
  %_8564 = alloca [32 x i8], align 8
  %_8545 = alloca [32 x i8], align 8
  %_8526 = alloca [32 x i8], align 8
  %_8507 = alloca [32 x i8], align 8
  %_8488 = alloca [32 x i8], align 8
  %_8469 = alloca [32 x i8], align 8
  %j71 = alloca [8 x i8], align 8
  %_8448 = alloca [32 x i8], align 8
  %_8429 = alloca [32 x i8], align 8
  %_8410 = alloca [32 x i8], align 8
  %_8391 = alloca [32 x i8], align 8
  %_8372 = alloca [32 x i8], align 8
  %_8353 = alloca [32 x i8], align 8
  %_8334 = alloca [32 x i8], align 8
  %_8315 = alloca [32 x i8], align 8
  %_8296 = alloca [32 x i8], align 8
  %_8277 = alloca [32 x i8], align 8
  %_8258 = alloca [32 x i8], align 8
  %_8239 = alloca [32 x i8], align 8
  %j70 = alloca [8 x i8], align 8
  %_8224 = alloca [16 x i8], align 8
  %_8220 = alloca [16 x i8], align 8
  %total_iters69 = alloca [8 x i8], align 8
  %_8217 = alloca [32 x i8], align 8
  %carry68 = alloca [8 x i8], align 8
  %_8196 = alloca [32 x i8], align 8
  %_8177 = alloca [32 x i8], align 8
  %_8158 = alloca [32 x i8], align 8
  %_8139 = alloca [32 x i8], align 8
  %_8120 = alloca [32 x i8], align 8
  %_8101 = alloca [32 x i8], align 8
  %_8082 = alloca [32 x i8], align 8
  %_8063 = alloca [32 x i8], align 8
  %_8044 = alloca [32 x i8], align 8
  %_8025 = alloca [32 x i8], align 8
  %_8006 = alloca [32 x i8], align 8
  %_7987 = alloca [32 x i8], align 8
  %j67 = alloca [8 x i8], align 8
  %_7966 = alloca [32 x i8], align 8
  %_7947 = alloca [32 x i8], align 8
  %_7928 = alloca [32 x i8], align 8
  %_7909 = alloca [32 x i8], align 8
  %_7890 = alloca [32 x i8], align 8
  %_7871 = alloca [32 x i8], align 8
  %_7852 = alloca [32 x i8], align 8
  %_7833 = alloca [32 x i8], align 8
  %_7814 = alloca [32 x i8], align 8
  %_7795 = alloca [32 x i8], align 8
  %_7776 = alloca [32 x i8], align 8
  %_7757 = alloca [32 x i8], align 8
  %j66 = alloca [8 x i8], align 8
  %_7742 = alloca [16 x i8], align 8
  %_7738 = alloca [16 x i8], align 8
  %total_iters65 = alloca [8 x i8], align 8
  %_7735 = alloca [32 x i8], align 8
  %carry64 = alloca [8 x i8], align 8
  %_7714 = alloca [32 x i8], align 8
  %_7695 = alloca [32 x i8], align 8
  %_7676 = alloca [32 x i8], align 8
  %_7657 = alloca [32 x i8], align 8
  %_7638 = alloca [32 x i8], align 8
  %_7619 = alloca [32 x i8], align 8
  %_7600 = alloca [32 x i8], align 8
  %_7581 = alloca [32 x i8], align 8
  %_7562 = alloca [32 x i8], align 8
  %_7543 = alloca [32 x i8], align 8
  %_7524 = alloca [32 x i8], align 8
  %_7505 = alloca [32 x i8], align 8
  %j63 = alloca [8 x i8], align 8
  %_7484 = alloca [32 x i8], align 8
  %_7465 = alloca [32 x i8], align 8
  %_7446 = alloca [32 x i8], align 8
  %_7427 = alloca [32 x i8], align 8
  %_7408 = alloca [32 x i8], align 8
  %_7389 = alloca [32 x i8], align 8
  %_7370 = alloca [32 x i8], align 8
  %_7351 = alloca [32 x i8], align 8
  %_7332 = alloca [32 x i8], align 8
  %_7313 = alloca [32 x i8], align 8
  %_7294 = alloca [32 x i8], align 8
  %_7275 = alloca [32 x i8], align 8
  %j62 = alloca [8 x i8], align 8
  %_7260 = alloca [16 x i8], align 8
  %_7256 = alloca [16 x i8], align 8
  %total_iters61 = alloca [8 x i8], align 8
  %_7253 = alloca [32 x i8], align 8
  %carry60 = alloca [8 x i8], align 8
  %_7232 = alloca [32 x i8], align 8
  %_7213 = alloca [32 x i8], align 8
  %_7194 = alloca [32 x i8], align 8
  %_7175 = alloca [32 x i8], align 8
  %_7156 = alloca [32 x i8], align 8
  %_7137 = alloca [32 x i8], align 8
  %_7118 = alloca [32 x i8], align 8
  %_7099 = alloca [32 x i8], align 8
  %_7080 = alloca [32 x i8], align 8
  %_7061 = alloca [32 x i8], align 8
  %_7042 = alloca [32 x i8], align 8
  %_7023 = alloca [32 x i8], align 8
  %j59 = alloca [8 x i8], align 8
  %_7002 = alloca [32 x i8], align 8
  %_6983 = alloca [32 x i8], align 8
  %_6964 = alloca [32 x i8], align 8
  %_6945 = alloca [32 x i8], align 8
  %_6926 = alloca [32 x i8], align 8
  %_6907 = alloca [32 x i8], align 8
  %_6888 = alloca [32 x i8], align 8
  %_6869 = alloca [32 x i8], align 8
  %_6850 = alloca [32 x i8], align 8
  %_6831 = alloca [32 x i8], align 8
  %_6812 = alloca [32 x i8], align 8
  %_6793 = alloca [32 x i8], align 8
  %j58 = alloca [8 x i8], align 8
  %_6778 = alloca [16 x i8], align 8
  %_6774 = alloca [16 x i8], align 8
  %total_iters57 = alloca [8 x i8], align 8
  %_6771 = alloca [32 x i8], align 8
  %carry56 = alloca [8 x i8], align 8
  %_6750 = alloca [32 x i8], align 8
  %_6731 = alloca [32 x i8], align 8
  %_6712 = alloca [32 x i8], align 8
  %_6693 = alloca [32 x i8], align 8
  %_6674 = alloca [32 x i8], align 8
  %_6655 = alloca [32 x i8], align 8
  %_6636 = alloca [32 x i8], align 8
  %_6617 = alloca [32 x i8], align 8
  %_6598 = alloca [32 x i8], align 8
  %_6579 = alloca [32 x i8], align 8
  %_6560 = alloca [32 x i8], align 8
  %_6541 = alloca [32 x i8], align 8
  %j55 = alloca [8 x i8], align 8
  %_6520 = alloca [32 x i8], align 8
  %_6501 = alloca [32 x i8], align 8
  %_6482 = alloca [32 x i8], align 8
  %_6463 = alloca [32 x i8], align 8
  %_6444 = alloca [32 x i8], align 8
  %_6425 = alloca [32 x i8], align 8
  %_6406 = alloca [32 x i8], align 8
  %_6387 = alloca [32 x i8], align 8
  %_6368 = alloca [32 x i8], align 8
  %_6349 = alloca [32 x i8], align 8
  %_6330 = alloca [32 x i8], align 8
  %_6311 = alloca [32 x i8], align 8
  %j54 = alloca [8 x i8], align 8
  %_6296 = alloca [16 x i8], align 8
  %_6292 = alloca [16 x i8], align 8
  %total_iters53 = alloca [8 x i8], align 8
  %_6289 = alloca [32 x i8], align 8
  %carry52 = alloca [8 x i8], align 8
  %_6268 = alloca [32 x i8], align 8
  %_6249 = alloca [32 x i8], align 8
  %_6230 = alloca [32 x i8], align 8
  %_6211 = alloca [32 x i8], align 8
  %_6192 = alloca [32 x i8], align 8
  %_6173 = alloca [32 x i8], align 8
  %_6154 = alloca [32 x i8], align 8
  %_6135 = alloca [32 x i8], align 8
  %_6116 = alloca [32 x i8], align 8
  %_6097 = alloca [32 x i8], align 8
  %_6078 = alloca [32 x i8], align 8
  %_6059 = alloca [32 x i8], align 8
  %j51 = alloca [8 x i8], align 8
  %_6038 = alloca [32 x i8], align 8
  %_6019 = alloca [32 x i8], align 8
  %_6000 = alloca [32 x i8], align 8
  %_5981 = alloca [32 x i8], align 8
  %_5962 = alloca [32 x i8], align 8
  %_5943 = alloca [32 x i8], align 8
  %_5924 = alloca [32 x i8], align 8
  %_5905 = alloca [32 x i8], align 8
  %_5886 = alloca [32 x i8], align 8
  %_5867 = alloca [32 x i8], align 8
  %_5848 = alloca [32 x i8], align 8
  %_5829 = alloca [32 x i8], align 8
  %j50 = alloca [8 x i8], align 8
  %_5814 = alloca [16 x i8], align 8
  %_5810 = alloca [16 x i8], align 8
  %total_iters49 = alloca [8 x i8], align 8
  %_5807 = alloca [32 x i8], align 8
  %carry48 = alloca [8 x i8], align 8
  %i47 = alloca [8 x i8], align 8
  %_5785 = alloca [32 x i8], align 8
  %_5766 = alloca [32 x i8], align 8
  %_5747 = alloca [32 x i8], align 8
  %_5728 = alloca [32 x i8], align 8
  %_5709 = alloca [32 x i8], align 8
  %_5690 = alloca [32 x i8], align 8
  %_5671 = alloca [32 x i8], align 8
  %_5652 = alloca [32 x i8], align 8
  %_5633 = alloca [32 x i8], align 8
  %_5614 = alloca [32 x i8], align 8
  %_5595 = alloca [32 x i8], align 8
  %_5576 = alloca [32 x i8], align 8
  %j46 = alloca [8 x i8], align 8
  %_5555 = alloca [32 x i8], align 8
  %_5536 = alloca [32 x i8], align 8
  %_5517 = alloca [32 x i8], align 8
  %_5498 = alloca [32 x i8], align 8
  %_5479 = alloca [32 x i8], align 8
  %_5460 = alloca [32 x i8], align 8
  %_5441 = alloca [32 x i8], align 8
  %_5422 = alloca [32 x i8], align 8
  %_5403 = alloca [32 x i8], align 8
  %_5384 = alloca [32 x i8], align 8
  %_5365 = alloca [32 x i8], align 8
  %_5346 = alloca [32 x i8], align 8
  %j45 = alloca [8 x i8], align 8
  %_5331 = alloca [16 x i8], align 8
  %_5327 = alloca [16 x i8], align 8
  %total_iters44 = alloca [8 x i8], align 8
  %_5324 = alloca [32 x i8], align 8
  %carry43 = alloca [8 x i8], align 8
  %_5303 = alloca [32 x i8], align 8
  %_5284 = alloca [32 x i8], align 8
  %_5265 = alloca [32 x i8], align 8
  %_5246 = alloca [32 x i8], align 8
  %_5227 = alloca [32 x i8], align 8
  %_5208 = alloca [32 x i8], align 8
  %_5189 = alloca [32 x i8], align 8
  %_5170 = alloca [32 x i8], align 8
  %_5151 = alloca [32 x i8], align 8
  %_5132 = alloca [32 x i8], align 8
  %_5113 = alloca [32 x i8], align 8
  %_5094 = alloca [32 x i8], align 8
  %j42 = alloca [8 x i8], align 8
  %_5073 = alloca [32 x i8], align 8
  %_5054 = alloca [32 x i8], align 8
  %_5035 = alloca [32 x i8], align 8
  %_5016 = alloca [32 x i8], align 8
  %_4997 = alloca [32 x i8], align 8
  %_4978 = alloca [32 x i8], align 8
  %_4959 = alloca [32 x i8], align 8
  %_4940 = alloca [32 x i8], align 8
  %_4921 = alloca [32 x i8], align 8
  %_4902 = alloca [32 x i8], align 8
  %_4883 = alloca [32 x i8], align 8
  %_4864 = alloca [32 x i8], align 8
  %j41 = alloca [8 x i8], align 8
  %_4849 = alloca [16 x i8], align 8
  %_4845 = alloca [16 x i8], align 8
  %total_iters40 = alloca [8 x i8], align 8
  %_4842 = alloca [32 x i8], align 8
  %carry39 = alloca [8 x i8], align 8
  %_4821 = alloca [32 x i8], align 8
  %_4802 = alloca [32 x i8], align 8
  %_4783 = alloca [32 x i8], align 8
  %_4764 = alloca [32 x i8], align 8
  %_4745 = alloca [32 x i8], align 8
  %_4726 = alloca [32 x i8], align 8
  %_4707 = alloca [32 x i8], align 8
  %_4688 = alloca [32 x i8], align 8
  %_4669 = alloca [32 x i8], align 8
  %_4650 = alloca [32 x i8], align 8
  %_4631 = alloca [32 x i8], align 8
  %_4612 = alloca [32 x i8], align 8
  %j38 = alloca [8 x i8], align 8
  %_4591 = alloca [32 x i8], align 8
  %_4572 = alloca [32 x i8], align 8
  %_4553 = alloca [32 x i8], align 8
  %_4534 = alloca [32 x i8], align 8
  %_4515 = alloca [32 x i8], align 8
  %_4496 = alloca [32 x i8], align 8
  %_4477 = alloca [32 x i8], align 8
  %_4458 = alloca [32 x i8], align 8
  %_4439 = alloca [32 x i8], align 8
  %_4420 = alloca [32 x i8], align 8
  %_4401 = alloca [32 x i8], align 8
  %_4382 = alloca [32 x i8], align 8
  %j37 = alloca [8 x i8], align 8
  %_4367 = alloca [16 x i8], align 8
  %_4363 = alloca [16 x i8], align 8
  %total_iters36 = alloca [8 x i8], align 8
  %_4360 = alloca [32 x i8], align 8
  %carry35 = alloca [8 x i8], align 8
  %_4339 = alloca [32 x i8], align 8
  %_4320 = alloca [32 x i8], align 8
  %_4301 = alloca [32 x i8], align 8
  %_4282 = alloca [32 x i8], align 8
  %_4263 = alloca [32 x i8], align 8
  %_4244 = alloca [32 x i8], align 8
  %_4225 = alloca [32 x i8], align 8
  %_4206 = alloca [32 x i8], align 8
  %_4187 = alloca [32 x i8], align 8
  %_4168 = alloca [32 x i8], align 8
  %_4149 = alloca [32 x i8], align 8
  %_4130 = alloca [32 x i8], align 8
  %j34 = alloca [8 x i8], align 8
  %_4109 = alloca [32 x i8], align 8
  %_4090 = alloca [32 x i8], align 8
  %_4071 = alloca [32 x i8], align 8
  %_4052 = alloca [32 x i8], align 8
  %_4033 = alloca [32 x i8], align 8
  %_4014 = alloca [32 x i8], align 8
  %_3995 = alloca [32 x i8], align 8
  %_3976 = alloca [32 x i8], align 8
  %_3957 = alloca [32 x i8], align 8
  %_3938 = alloca [32 x i8], align 8
  %_3919 = alloca [32 x i8], align 8
  %_3900 = alloca [32 x i8], align 8
  %j33 = alloca [8 x i8], align 8
  %_3885 = alloca [16 x i8], align 8
  %_3881 = alloca [16 x i8], align 8
  %total_iters32 = alloca [8 x i8], align 8
  %_3878 = alloca [32 x i8], align 8
  %carry31 = alloca [8 x i8], align 8
  %_3857 = alloca [32 x i8], align 8
  %_3838 = alloca [32 x i8], align 8
  %_3819 = alloca [32 x i8], align 8
  %_3800 = alloca [32 x i8], align 8
  %_3781 = alloca [32 x i8], align 8
  %_3762 = alloca [32 x i8], align 8
  %_3743 = alloca [32 x i8], align 8
  %_3724 = alloca [32 x i8], align 8
  %_3705 = alloca [32 x i8], align 8
  %_3686 = alloca [32 x i8], align 8
  %_3667 = alloca [32 x i8], align 8
  %_3648 = alloca [32 x i8], align 8
  %j30 = alloca [8 x i8], align 8
  %_3627 = alloca [32 x i8], align 8
  %_3608 = alloca [32 x i8], align 8
  %_3589 = alloca [32 x i8], align 8
  %_3570 = alloca [32 x i8], align 8
  %_3551 = alloca [32 x i8], align 8
  %_3532 = alloca [32 x i8], align 8
  %_3513 = alloca [32 x i8], align 8
  %_3494 = alloca [32 x i8], align 8
  %_3475 = alloca [32 x i8], align 8
  %_3456 = alloca [32 x i8], align 8
  %_3437 = alloca [32 x i8], align 8
  %_3418 = alloca [32 x i8], align 8
  %j29 = alloca [8 x i8], align 8
  %_3403 = alloca [16 x i8], align 8
  %_3399 = alloca [16 x i8], align 8
  %total_iters28 = alloca [8 x i8], align 8
  %_3396 = alloca [32 x i8], align 8
  %carry27 = alloca [8 x i8], align 8
  %_3375 = alloca [32 x i8], align 8
  %_3356 = alloca [32 x i8], align 8
  %_3337 = alloca [32 x i8], align 8
  %_3318 = alloca [32 x i8], align 8
  %_3299 = alloca [32 x i8], align 8
  %_3280 = alloca [32 x i8], align 8
  %_3261 = alloca [32 x i8], align 8
  %_3242 = alloca [32 x i8], align 8
  %_3223 = alloca [32 x i8], align 8
  %_3204 = alloca [32 x i8], align 8
  %_3185 = alloca [32 x i8], align 8
  %_3166 = alloca [32 x i8], align 8
  %j26 = alloca [8 x i8], align 8
  %_3145 = alloca [32 x i8], align 8
  %_3126 = alloca [32 x i8], align 8
  %_3107 = alloca [32 x i8], align 8
  %_3088 = alloca [32 x i8], align 8
  %_3069 = alloca [32 x i8], align 8
  %_3050 = alloca [32 x i8], align 8
  %_3031 = alloca [32 x i8], align 8
  %_3012 = alloca [32 x i8], align 8
  %_2993 = alloca [32 x i8], align 8
  %_2974 = alloca [32 x i8], align 8
  %_2955 = alloca [32 x i8], align 8
  %_2936 = alloca [32 x i8], align 8
  %j25 = alloca [8 x i8], align 8
  %_2921 = alloca [16 x i8], align 8
  %_2917 = alloca [16 x i8], align 8
  %total_iters24 = alloca [8 x i8], align 8
  %_2914 = alloca [32 x i8], align 8
  %carry23 = alloca [8 x i8], align 8
  %_2893 = alloca [32 x i8], align 8
  %_2874 = alloca [32 x i8], align 8
  %_2855 = alloca [32 x i8], align 8
  %_2836 = alloca [32 x i8], align 8
  %_2817 = alloca [32 x i8], align 8
  %_2798 = alloca [32 x i8], align 8
  %_2779 = alloca [32 x i8], align 8
  %_2760 = alloca [32 x i8], align 8
  %_2741 = alloca [32 x i8], align 8
  %_2722 = alloca [32 x i8], align 8
  %_2703 = alloca [32 x i8], align 8
  %_2684 = alloca [32 x i8], align 8
  %j22 = alloca [8 x i8], align 8
  %_2663 = alloca [32 x i8], align 8
  %_2644 = alloca [32 x i8], align 8
  %_2625 = alloca [32 x i8], align 8
  %_2606 = alloca [32 x i8], align 8
  %_2587 = alloca [32 x i8], align 8
  %_2568 = alloca [32 x i8], align 8
  %_2549 = alloca [32 x i8], align 8
  %_2530 = alloca [32 x i8], align 8
  %_2511 = alloca [32 x i8], align 8
  %_2492 = alloca [32 x i8], align 8
  %_2473 = alloca [32 x i8], align 8
  %_2454 = alloca [32 x i8], align 8
  %j21 = alloca [8 x i8], align 8
  %_2439 = alloca [16 x i8], align 8
  %_2435 = alloca [16 x i8], align 8
  %total_iters20 = alloca [8 x i8], align 8
  %_2432 = alloca [32 x i8], align 8
  %carry19 = alloca [8 x i8], align 8
  %_2411 = alloca [32 x i8], align 8
  %_2392 = alloca [32 x i8], align 8
  %_2373 = alloca [32 x i8], align 8
  %_2354 = alloca [32 x i8], align 8
  %_2335 = alloca [32 x i8], align 8
  %_2316 = alloca [32 x i8], align 8
  %_2297 = alloca [32 x i8], align 8
  %_2278 = alloca [32 x i8], align 8
  %_2259 = alloca [32 x i8], align 8
  %_2240 = alloca [32 x i8], align 8
  %_2221 = alloca [32 x i8], align 8
  %_2202 = alloca [32 x i8], align 8
  %j18 = alloca [8 x i8], align 8
  %_2181 = alloca [32 x i8], align 8
  %_2162 = alloca [32 x i8], align 8
  %_2143 = alloca [32 x i8], align 8
  %_2124 = alloca [32 x i8], align 8
  %_2105 = alloca [32 x i8], align 8
  %_2086 = alloca [32 x i8], align 8
  %_2067 = alloca [32 x i8], align 8
  %_2048 = alloca [32 x i8], align 8
  %_2029 = alloca [32 x i8], align 8
  %_2010 = alloca [32 x i8], align 8
  %_1991 = alloca [32 x i8], align 8
  %_1972 = alloca [32 x i8], align 8
  %j17 = alloca [8 x i8], align 8
  %_1957 = alloca [16 x i8], align 8
  %_1953 = alloca [16 x i8], align 8
  %total_iters16 = alloca [8 x i8], align 8
  %_1950 = alloca [32 x i8], align 8
  %carry15 = alloca [8 x i8], align 8
  %_1929 = alloca [32 x i8], align 8
  %_1910 = alloca [32 x i8], align 8
  %_1891 = alloca [32 x i8], align 8
  %_1872 = alloca [32 x i8], align 8
  %_1853 = alloca [32 x i8], align 8
  %_1834 = alloca [32 x i8], align 8
  %_1815 = alloca [32 x i8], align 8
  %_1796 = alloca [32 x i8], align 8
  %_1777 = alloca [32 x i8], align 8
  %_1758 = alloca [32 x i8], align 8
  %_1739 = alloca [32 x i8], align 8
  %_1720 = alloca [32 x i8], align 8
  %j14 = alloca [8 x i8], align 8
  %_1699 = alloca [32 x i8], align 8
  %_1680 = alloca [32 x i8], align 8
  %_1661 = alloca [32 x i8], align 8
  %_1642 = alloca [32 x i8], align 8
  %_1623 = alloca [32 x i8], align 8
  %_1604 = alloca [32 x i8], align 8
  %_1585 = alloca [32 x i8], align 8
  %_1566 = alloca [32 x i8], align 8
  %_1547 = alloca [32 x i8], align 8
  %_1528 = alloca [32 x i8], align 8
  %_1509 = alloca [32 x i8], align 8
  %_1490 = alloca [32 x i8], align 8
  %j13 = alloca [8 x i8], align 8
  %_1475 = alloca [16 x i8], align 8
  %_1471 = alloca [16 x i8], align 8
  %total_iters12 = alloca [8 x i8], align 8
  %_1468 = alloca [32 x i8], align 8
  %carry11 = alloca [8 x i8], align 8
  %_1447 = alloca [32 x i8], align 8
  %_1428 = alloca [32 x i8], align 8
  %_1409 = alloca [32 x i8], align 8
  %_1390 = alloca [32 x i8], align 8
  %_1371 = alloca [32 x i8], align 8
  %_1352 = alloca [32 x i8], align 8
  %_1333 = alloca [32 x i8], align 8
  %_1314 = alloca [32 x i8], align 8
  %_1295 = alloca [32 x i8], align 8
  %_1276 = alloca [32 x i8], align 8
  %_1257 = alloca [32 x i8], align 8
  %_1238 = alloca [32 x i8], align 8
  %j10 = alloca [8 x i8], align 8
  %_1217 = alloca [32 x i8], align 8
  %_1198 = alloca [32 x i8], align 8
  %_1179 = alloca [32 x i8], align 8
  %_1160 = alloca [32 x i8], align 8
  %_1141 = alloca [32 x i8], align 8
  %_1122 = alloca [32 x i8], align 8
  %_1103 = alloca [32 x i8], align 8
  %_1084 = alloca [32 x i8], align 8
  %_1065 = alloca [32 x i8], align 8
  %_1046 = alloca [32 x i8], align 8
  %_1027 = alloca [32 x i8], align 8
  %_1008 = alloca [32 x i8], align 8
  %j9 = alloca [8 x i8], align 8
  %_993 = alloca [16 x i8], align 8
  %_989 = alloca [16 x i8], align 8
  %total_iters8 = alloca [8 x i8], align 8
  %_986 = alloca [32 x i8], align 8
  %carry7 = alloca [8 x i8], align 8
  %_965 = alloca [32 x i8], align 8
  %_946 = alloca [32 x i8], align 8
  %_927 = alloca [32 x i8], align 8
  %_908 = alloca [32 x i8], align 8
  %_889 = alloca [32 x i8], align 8
  %_870 = alloca [32 x i8], align 8
  %_851 = alloca [32 x i8], align 8
  %_832 = alloca [32 x i8], align 8
  %_813 = alloca [32 x i8], align 8
  %_794 = alloca [32 x i8], align 8
  %_775 = alloca [32 x i8], align 8
  %_756 = alloca [32 x i8], align 8
  %j6 = alloca [8 x i8], align 8
  %_735 = alloca [32 x i8], align 8
  %_716 = alloca [32 x i8], align 8
  %_697 = alloca [32 x i8], align 8
  %_678 = alloca [32 x i8], align 8
  %_659 = alloca [32 x i8], align 8
  %_640 = alloca [32 x i8], align 8
  %_621 = alloca [32 x i8], align 8
  %_602 = alloca [32 x i8], align 8
  %_583 = alloca [32 x i8], align 8
  %_564 = alloca [32 x i8], align 8
  %_545 = alloca [32 x i8], align 8
  %_526 = alloca [32 x i8], align 8
  %j5 = alloca [8 x i8], align 8
  %_511 = alloca [16 x i8], align 8
  %_507 = alloca [16 x i8], align 8
  %total_iters4 = alloca [8 x i8], align 8
  %_504 = alloca [32 x i8], align 8
  %carry3 = alloca [8 x i8], align 8
  %_483 = alloca [32 x i8], align 8
  %_464 = alloca [32 x i8], align 8
  %_445 = alloca [32 x i8], align 8
  %_426 = alloca [32 x i8], align 8
  %_407 = alloca [32 x i8], align 8
  %_388 = alloca [32 x i8], align 8
  %_369 = alloca [32 x i8], align 8
  %_350 = alloca [32 x i8], align 8
  %_331 = alloca [32 x i8], align 8
  %_312 = alloca [32 x i8], align 8
  %_293 = alloca [32 x i8], align 8
  %_274 = alloca [32 x i8], align 8
  %j2 = alloca [8 x i8], align 8
  %_253 = alloca [32 x i8], align 8
  %_234 = alloca [32 x i8], align 8
  %_215 = alloca [32 x i8], align 8
  %_196 = alloca [32 x i8], align 8
  %_177 = alloca [32 x i8], align 8
  %_158 = alloca [32 x i8], align 8
  %_139 = alloca [32 x i8], align 8
  %_120 = alloca [32 x i8], align 8
  %_101 = alloca [32 x i8], align 8
  %_82 = alloca [32 x i8], align 8
  %_63 = alloca [32 x i8], align 8
  %_44 = alloca [32 x i8], align 8
  %j = alloca [8 x i8], align 8
  %_29 = alloca [16 x i8], align 8
  %_25 = alloca [16 x i8], align 8
  %total_iters1 = alloca [8 x i8], align 8
  %_22 = alloca [32 x i8], align 8
  %carry = alloca [8 x i8], align 8
  %i = alloca [8 x i8], align 8
  %_8 = alloca [16 x i8], align 8
  %_4 = alloca [16 x i8], align 8
  %total_iters = alloca [8 x i8], align 8
  %r = alloca [32 x i8], align 8
  call void @llvm.memcpy.p0.p0.i64(ptr align 8 %r, ptr align 8 %a, i64 32, i1 false)
  call void @llvm.lifetime.start.p0(ptr %_4)
  br label %bb4803

bb4803:                                           ; preds = %start
  %0 = getelementptr inbounds i8, ptr %_4, i64 8
  store i64 4, ptr %0, align 8
  store i64 1, ptr %_4, align 8
  %1 = getelementptr inbounds i8, ptr %_4, i64 8
  %2 = load i64, ptr %1, align 8, !noundef !3
  store i64 %2, ptr %total_iters, align 8
  br label %bb4804

bb4804:                                           ; preds = %bb4802, %bb4803
  call void @llvm.lifetime.end.p0(ptr %_4)
  %_6 = load i64, ptr %total_iters, align 8, !noundef !3
  %num_loops = udiv i64 %_6, 12
  %3 = load i64, ptr %total_iters, align 8, !noundef !3
  %remainder = urem i64 %3, 12
  store i64 0, ptr %iter, align 8
  br label %bb1

bb4802:                                           ; No predecessors!
  store i64 0, ptr %total_iters, align 8
  br label %bb4804

bb1:                                              ; preds = %bb2401, %bb4804
  call void @llvm.lifetime.start.p0(ptr %_8)
  %_11584 = load i64, ptr %iter, align 8, !noundef !3
  %_11581 = icmp ult i64 %_11584, %num_loops
  br i1 %_11581, label %bb4805, label %bb4806

bb4806:                                           ; preds = %bb1
  call void @llvm.lifetime.end.p0(ptr %_8)
  %4 = mul i64 %num_loops, 12
  store i64 %4, ptr %i47, align 8
  %_5797 = load i64, ptr %i47, align 8, !noundef !3
  %_5796 = icmp ult i64 %_5797, 4
  br i1 %_5796, label %bb2402, label %bb2403

bb4805:                                           ; preds = %bb1
  %_11582 = load i64, ptr %iter, align 8, !noundef !3
  %5 = add nuw i64 %_11582, 1
  store i64 %5, ptr %iter, align 8
  %6 = getelementptr inbounds i8, ptr %_8, i64 8
  store i64 %_11582, ptr %6, align 8
  store i64 1, ptr %_8, align 8
  %7 = getelementptr inbounds i8, ptr %_8, i64 8
  %i1066 = load i64, ptr %7, align 8, !noundef !3
  %8 = mul i64 %i1066, 12
  store i64 %8, ptr %i, align 8
  %_12 = load i64, ptr %i, align 8, !noundef !3
  %_11 = icmp ult i64 %_12, 4
  br i1 %_11, label %bb2, label %bb200

bb2403:                                           ; preds = %bb4806
  br label %bb2601

bb2402:                                           ; preds = %bb4806
  %_5800 = load i64, ptr %i47, align 8, !noundef !3
  %_5801 = icmp ult i64 %_5800, 4
  br i1 %_5801, label %bb2404, label %panic

bb2601:                                           ; preds = %bb2600, %bb2403
  %9 = load i64, ptr %i47, align 8, !noundef !3
  %10 = add i64 %9, 1
  store i64 %10, ptr %i47, align 8
  %_6279 = load i64, ptr %i47, align 8, !noundef !3
  %_6278 = icmp ult i64 %_6279, 4
  br i1 %_6278, label %bb2602, label %bb2800

bb2404:                                           ; preds = %bb2402
  %11 = getelementptr inbounds nuw i64, ptr %r, i64 %_5800
  %_5799 = load i64, ptr %11, align 8, !noundef !3
  %k = mul i64 %_5799, -8659850874718887031
  store i64 0, ptr %carry48, align 8
  %_5804 = load i64, ptr %i47, align 8, !noundef !3
  %_5805 = icmp ult i64 %_5804, 4
  br i1 %_5805, label %bb2405, label %panic120

panic:                                            ; preds = %bb2402
; call core::panicking::panic_bounds_check
  call void @_RNvNtCs8OG1GeFZzXY_4core9panicking18panic_bounds_check(i64 noundef %_5800, i64 noundef 4, ptr noalias noundef readonly align 8 captures(address, read_provenance) dereferenceable(24) @alloc_ffde8619649764ddfa94b9917826fa38) #28
  unreachable

bb2405:                                           ; preds = %bb2404
  %12 = getelementptr inbounds nuw i64, ptr %r, i64 %_5804
  %_5803 = load i64, ptr %12, align 8, !noundef !3
  call void @llvm.lifetime.start.p0(ptr %_16253)
  call void @llvm.memcpy.p0.p0.i64(ptr align 8 %_5807, ptr align 8 @alloc_4ac3c5d41a46e3ab32675db08dd7fc71, i64 32, i1 false)
  call void @llvm.memcpy.p0.p0.i64(ptr align 8 %_16253, ptr align 8 %_5807, i64 32, i1 false)
  %13 = getelementptr inbounds nuw i64, ptr %_16253, i64 0
  %_5806 = load i64, ptr %13, align 8, !noundef !3
  %_13771 = zext i64 %_5803 to i128
  %_13775 = zext i64 %k to i128
  %_13776 = zext i64 %_5806 to i128
  %_13772 = mul i128 %_13775, %_13776
  %_13770 = add i128 %_13771, %_13772
  %14 = load i64, ptr %carry48, align 8, !noundef !3
  %_13773 = zext i64 %14 to i128
  %_13769 = add i128 %_13770, %_13773
  %_13774 = lshr i128 %_13769, 64
  %15 = trunc i128 %_13774 to i64
  store i64 %15, ptr %carry48, align 8
  call void @llvm.lifetime.end.p0(ptr %_16253)
  call void @llvm.lifetime.start.p0(ptr %_5810)
  br label %bb4868

panic120:                                         ; preds = %bb2404
; call core::panicking::panic_bounds_check
  call void @_RNvNtCs8OG1GeFZzXY_4core9panicking18panic_bounds_check(i64 noundef %_5804, i64 noundef 4, ptr noalias noundef readonly align 8 captures(address, read_provenance) dereferenceable(24) @alloc_b6d549c2b3ce344d3ee993619e732d16) #28
  unreachable

bb4868:                                           ; preds = %bb2405
  %16 = getelementptr inbounds i8, ptr %_5810, i64 8
  store i64 3, ptr %16, align 8
  store i64 1, ptr %_5810, align 8
  %17 = getelementptr inbounds i8, ptr %_5810, i64 8
  %18 = load i64, ptr %17, align 8, !noundef !3
  store i64 %18, ptr %total_iters49, align 8
  br label %bb4869

bb4869:                                           ; preds = %bb4867, %bb4868
  call void @llvm.lifetime.end.p0(ptr %_5810)
  %_5812 = load i64, ptr %total_iters49, align 8, !noundef !3
  %num_loops121 = udiv i64 %_5812, 12
  %19 = load i64, ptr %total_iters49, align 8, !noundef !3
  %remainder122 = urem i64 %19, 12
  store i64 0, ptr %iter108, align 8
  br label %bb2407

bb4867:                                           ; No predecessors!
  store i64 0, ptr %total_iters49, align 8
  br label %bb4869

bb2407:                                           ; preds = %bb2503, %bb4869
  call void @llvm.lifetime.start.p0(ptr %_5814)
  %_13782 = load i64, ptr %iter108, align 8, !noundef !3
  %_13779 = icmp ult i64 %_13782, %num_loops121
  br i1 %_13779, label %bb4870, label %bb4871

bb4871:                                           ; preds = %bb2407
  call void @llvm.lifetime.end.p0(ptr %_5814)
  call void @llvm.lifetime.start.p0(ptr %j51)
  %_6047 = mul i64 %num_loops121, 12
  %20 = add i64 1, %_6047
  store i64 %20, ptr %j51, align 8
  %_6049 = load i64, ptr %j51, align 8, !noundef !3
  %_6048 = icmp ult i64 %_6049, 4
  br i1 %_6048, label %bb2504, label %bb2505

bb4870:                                           ; preds = %bb2407
  %_13780 = load i64, ptr %iter108, align 8, !noundef !3
  %21 = add nuw i64 %_13780, 1
  store i64 %21, ptr %iter108, align 8
  %22 = getelementptr inbounds i8, ptr %_5814, i64 8
  store i64 %_13780, ptr %22, align 8
  store i64 1, ptr %_5814, align 8
  %23 = getelementptr inbounds i8, ptr %_5814, i64 8
  %j1029 = load i64, ptr %23, align 8, !noundef !3
  call void @llvm.lifetime.start.p0(ptr %j50)
  %_5817 = mul i64 %j1029, 12
  %24 = add i64 1, %_5817
  store i64 %24, ptr %j50, align 8
  %_5819 = load i64, ptr %j50, align 8, !noundef !3
  %_5818 = icmp ult i64 %_5819, 4
  br i1 %_5818, label %bb2408, label %bb2414

bb2505:                                           ; preds = %bb4871
  br label %bb2511

bb2504:                                           ; preds = %bb4871
  %_6054 = load i64, ptr %j51, align 8, !noundef !3
  %_6055 = load i64, ptr %i47, align 8, !noundef !3
  %_6053 = add i64 %_6054, %_6055
  %_6052 = urem i64 %_6053, 4
  %_6057 = icmp ult i64 %_6052, 4
  br i1 %_6057, label %bb2507, label %panic123

bb2511:                                           ; preds = %bb2510, %bb2505
  %25 = load i64, ptr %j51, align 8, !noundef !3
  %26 = add i64 %25, 1
  store i64 %26, ptr %j51, align 8
  %_6068 = load i64, ptr %j51, align 8, !noundef !3
  %_6067 = icmp ult i64 %_6068, 4
  br i1 %_6067, label %bb2512, label %bb2518

bb2507:                                           ; preds = %bb2504
  %27 = getelementptr inbounds nuw i64, ptr %r, i64 %_6052
  %_6051 = load i64, ptr %27, align 8, !noundef !3
  call void @llvm.lifetime.start.p0(ptr %_16266)
  call void @llvm.memcpy.p0.p0.i64(ptr align 8 %_6059, ptr align 8 @alloc_4ac3c5d41a46e3ab32675db08dd7fc71, i64 32, i1 false)
  call void @llvm.memcpy.p0.p0.i64(ptr align 8 %_16266, ptr align 8 %_6059, i64 32, i1 false)
  %_6060 = load i64, ptr %j51, align 8, !noundef !3
  %_6061 = icmp ult i64 %_6060, 4
  br i1 %_6061, label %bb2508, label %panic124

panic123:                                         ; preds = %bb2504
; call core::panicking::panic_bounds_check
  call void @_RNvNtCs8OG1GeFZzXY_4core9panicking18panic_bounds_check(i64 noundef %_6052, i64 noundef 4, ptr noalias noundef readonly align 8 captures(address, read_provenance) dereferenceable(24) @alloc_318a8e9150e07c5cbdd12b81bfa85a33) #28
  unreachable

bb2508:                                           ; preds = %bb2507
  %28 = getelementptr inbounds nuw i64, ptr %_16266, i64 %_6060
  %_6058 = load i64, ptr %28, align 8, !noundef !3
  %_13869 = zext i64 %_6051 to i128
  %_13873 = zext i64 %_6058 to i128
  %_13870 = mul i128 %_13775, %_13873
  %_13868 = add i128 %_13869, %_13870
  %29 = load i64, ptr %carry48, align 8, !noundef !3
  %_13871 = zext i64 %29 to i128
  %_13867 = add i128 %_13868, %_13871
  %_13872 = lshr i128 %_13867, 64
  %30 = trunc i128 %_13872 to i64
  store i64 %30, ptr %carry48, align 8
  %_6050 = trunc i128 %_13867 to i64
  %_6064 = load i64, ptr %j51, align 8, !noundef !3
  %_6065 = load i64, ptr %i47, align 8, !noundef !3
  %_6063 = add i64 %_6064, %_6065
  %_6062 = urem i64 %_6063, 4
  %_6066 = icmp ult i64 %_6062, 4
  br i1 %_6066, label %bb2510, label %panic125

panic124:                                         ; preds = %bb2507
; call core::panicking::panic_bounds_check
  call void @_RNvNtCs8OG1GeFZzXY_4core9panicking18panic_bounds_check(i64 noundef %_6060, i64 noundef 4, ptr noalias noundef readonly align 8 captures(address, read_provenance) dereferenceable(24) @alloc_41d98e10d851b9e3632a1b50dd5ef0a8) #28
  unreachable

bb2510:                                           ; preds = %bb2508
  %31 = getelementptr inbounds nuw i64, ptr %r, i64 %_6062
  store i64 %_6050, ptr %31, align 8
  call void @llvm.lifetime.end.p0(ptr %_16266)
  br label %bb2511

panic125:                                         ; preds = %bb2508
; call core::panicking::panic_bounds_check
  call void @_RNvNtCs8OG1GeFZzXY_4core9panicking18panic_bounds_check(i64 noundef %_6062, i64 noundef 4, ptr noalias noundef readonly align 8 captures(address, read_provenance) dereferenceable(24) @alloc_3736e7aeed652b81b744fa79f14aba19) #28
  unreachable

bb2518:                                           ; preds = %bb2511
  br label %bb2519

bb2512:                                           ; preds = %bb2511
  %_6073 = load i64, ptr %j51, align 8, !noundef !3
  %_6074 = load i64, ptr %i47, align 8, !noundef !3
  %_6072 = add i64 %_6073, %_6074
  %_6071 = urem i64 %_6072, 4
  %_6076 = icmp ult i64 %_6071, 4
  br i1 %_6076, label %bb2514, label %panic126

bb2519:                                           ; preds = %bb2517, %bb2518
  %32 = load i64, ptr %j51, align 8, !noundef !3
  %33 = add i64 %32, 1
  store i64 %33, ptr %j51, align 8
  %_6087 = load i64, ptr %j51, align 8, !noundef !3
  %_6086 = icmp ult i64 %_6087, 4
  br i1 %_6086, label %bb2520, label %bb2526

bb2514:                                           ; preds = %bb2512
  %34 = getelementptr inbounds nuw i64, ptr %r, i64 %_6071
  %_6070 = load i64, ptr %34, align 8, !noundef !3
  call void @llvm.lifetime.start.p0(ptr %_16267)
  call void @llvm.memcpy.p0.p0.i64(ptr align 8 %_6078, ptr align 8 @alloc_4ac3c5d41a46e3ab32675db08dd7fc71, i64 32, i1 false)
  call void @llvm.memcpy.p0.p0.i64(ptr align 8 %_16267, ptr align 8 %_6078, i64 32, i1 false)
  %_6079 = load i64, ptr %j51, align 8, !noundef !3
  %_6080 = icmp ult i64 %_6079, 4
  br i1 %_6080, label %bb2515, label %panic127

panic126:                                         ; preds = %bb2512
; call core::panicking::panic_bounds_check
  call void @_RNvNtCs8OG1GeFZzXY_4core9panicking18panic_bounds_check(i64 noundef %_6071, i64 noundef 4, ptr noalias noundef readonly align 8 captures(address, read_provenance) dereferenceable(24) @alloc_318a8e9150e07c5cbdd12b81bfa85a33) #28
  unreachable

bb2515:                                           ; preds = %bb2514
  %35 = getelementptr inbounds nuw i64, ptr %_16267, i64 %_6079
  %_6077 = load i64, ptr %35, align 8, !noundef !3
  %_13876 = zext i64 %_6070 to i128
  %_13880 = zext i64 %_6077 to i128
  %_13877 = mul i128 %_13775, %_13880
  %_13875 = add i128 %_13876, %_13877
  %36 = load i64, ptr %carry48, align 8, !noundef !3
  %_13878 = zext i64 %36 to i128
  %_13874 = add i128 %_13875, %_13878
  %_13879 = lshr i128 %_13874, 64
  %37 = trunc i128 %_13879 to i64
  store i64 %37, ptr %carry48, align 8
  %_6069 = trunc i128 %_13874 to i64
  %_6083 = load i64, ptr %j51, align 8, !noundef !3
  %_6084 = load i64, ptr %i47, align 8, !noundef !3
  %_6082 = add i64 %_6083, %_6084
  %_6081 = urem i64 %_6082, 4
  %_6085 = icmp ult i64 %_6081, 4
  br i1 %_6085, label %bb2517, label %panic128

panic127:                                         ; preds = %bb2514
; call core::panicking::panic_bounds_check
  call void @_RNvNtCs8OG1GeFZzXY_4core9panicking18panic_bounds_check(i64 noundef %_6079, i64 noundef 4, ptr noalias noundef readonly align 8 captures(address, read_provenance) dereferenceable(24) @alloc_41d98e10d851b9e3632a1b50dd5ef0a8) #28
  unreachable

bb2517:                                           ; preds = %bb2515
  %38 = getelementptr inbounds nuw i64, ptr %r, i64 %_6081
  store i64 %_6069, ptr %38, align 8
  call void @llvm.lifetime.end.p0(ptr %_16267)
  br label %bb2519

panic128:                                         ; preds = %bb2515
; call core::panicking::panic_bounds_check
  call void @_RNvNtCs8OG1GeFZzXY_4core9panicking18panic_bounds_check(i64 noundef %_6081, i64 noundef 4, ptr noalias noundef readonly align 8 captures(address, read_provenance) dereferenceable(24) @alloc_3736e7aeed652b81b744fa79f14aba19) #28
  unreachable

bb2526:                                           ; preds = %bb2519
  br label %bb2527

bb2520:                                           ; preds = %bb2519
  %_6092 = load i64, ptr %j51, align 8, !noundef !3
  %_6093 = load i64, ptr %i47, align 8, !noundef !3
  %_6091 = add i64 %_6092, %_6093
  %_6090 = urem i64 %_6091, 4
  %_6095 = icmp ult i64 %_6090, 4
  br i1 %_6095, label %bb2522, label %panic129

bb2527:                                           ; preds = %bb2525, %bb2526
  %39 = load i64, ptr %j51, align 8, !noundef !3
  %40 = add i64 %39, 1
  store i64 %40, ptr %j51, align 8
  %_6106 = load i64, ptr %j51, align 8, !noundef !3
  %_6105 = icmp ult i64 %_6106, 4
  br i1 %_6105, label %bb2528, label %bb2534

bb2522:                                           ; preds = %bb2520
  %41 = getelementptr inbounds nuw i64, ptr %r, i64 %_6090
  %_6089 = load i64, ptr %41, align 8, !noundef !3
  call void @llvm.lifetime.start.p0(ptr %_16268)
  call void @llvm.memcpy.p0.p0.i64(ptr align 8 %_6097, ptr align 8 @alloc_4ac3c5d41a46e3ab32675db08dd7fc71, i64 32, i1 false)
  call void @llvm.memcpy.p0.p0.i64(ptr align 8 %_16268, ptr align 8 %_6097, i64 32, i1 false)
  %_6098 = load i64, ptr %j51, align 8, !noundef !3
  %_6099 = icmp ult i64 %_6098, 4
  br i1 %_6099, label %bb2523, label %panic130

panic129:                                         ; preds = %bb2520
; call core::panicking::panic_bounds_check
  call void @_RNvNtCs8OG1GeFZzXY_4core9panicking18panic_bounds_check(i64 noundef %_6090, i64 noundef 4, ptr noalias noundef readonly align 8 captures(address, read_provenance) dereferenceable(24) @alloc_318a8e9150e07c5cbdd12b81bfa85a33) #28
  unreachable

bb2523:                                           ; preds = %bb2522
  %42 = getelementptr inbounds nuw i64, ptr %_16268, i64 %_6098
  %_6096 = load i64, ptr %42, align 8, !noundef !3
  %_13883 = zext i64 %_6089 to i128
  %_13887 = zext i64 %_6096 to i128
  %_13884 = mul i128 %_13775, %_13887
  %_13882 = add i128 %_13883, %_13884
  %43 = load i64, ptr %carry48, align 8, !noundef !3
  %_13885 = zext i64 %43 to i128
  %_13881 = add i128 %_13882, %_13885
  %_13886 = lshr i128 %_13881, 64
  %44 = trunc i128 %_13886 to i64
  store i64 %44, ptr %carry48, align 8
  %_6088 = trunc i128 %_13881 to i64
  %_6102 = load i64, ptr %j51, align 8, !noundef !3
  %_6103 = load i64, ptr %i47, align 8, !noundef !3
  %_6101 = add i64 %_6102, %_6103
  %_6100 = urem i64 %_6101, 4
  %_6104 = icmp ult i64 %_6100, 4
  br i1 %_6104, label %bb2525, label %panic131

panic130:                                         ; preds = %bb2522
; call core::panicking::panic_bounds_check
  call void @_RNvNtCs8OG1GeFZzXY_4core9panicking18panic_bounds_check(i64 noundef %_6098, i64 noundef 4, ptr noalias noundef readonly align 8 captures(address, read_provenance) dereferenceable(24) @alloc_41d98e10d851b9e3632a1b50dd5ef0a8) #28
  unreachable

bb2525:                                           ; preds = %bb2523
  %45 = getelementptr inbounds nuw i64, ptr %r, i64 %_6100
  store i64 %_6088, ptr %45, align 8
  call void @llvm.lifetime.end.p0(ptr %_16268)
  br label %bb2527

panic131:                                         ; preds = %bb2523
; call core::panicking::panic_bounds_check
  call void @_RNvNtCs8OG1GeFZzXY_4core9panicking18panic_bounds_check(i64 noundef %_6100, i64 noundef 4, ptr noalias noundef readonly align 8 captures(address, read_provenance) dereferenceable(24) @alloc_3736e7aeed652b81b744fa79f14aba19) #28
  unreachable

bb2534:                                           ; preds = %bb2527
  br label %bb2535

bb2528:                                           ; preds = %bb2527
  %_6111 = load i64, ptr %j51, align 8, !noundef !3
  %_6112 = load i64, ptr %i47, align 8, !noundef !3
  %_6110 = add i64 %_6111, %_6112
  %_6109 = urem i64 %_6110, 4
  %_6114 = icmp ult i64 %_6109, 4
  br i1 %_6114, label %bb2530, label %panic132

bb2535:                                           ; preds = %bb2533, %bb2534
  %46 = load i64, ptr %j51, align 8, !noundef !3
  %47 = add i64 %46, 1
  store i64 %47, ptr %j51, align 8
  %_6125 = load i64, ptr %j51, align 8, !noundef !3
  %_6124 = icmp ult i64 %_6125, 4
  br i1 %_6124, label %bb2536, label %bb2542

bb2530:                                           ; preds = %bb2528
  %48 = getelementptr inbounds nuw i64, ptr %r, i64 %_6109
  %_6108 = load i64, ptr %48, align 8, !noundef !3
  call void @llvm.lifetime.start.p0(ptr %_16269)
  call void @llvm.memcpy.p0.p0.i64(ptr align 8 %_6116, ptr align 8 @alloc_4ac3c5d41a46e3ab32675db08dd7fc71, i64 32, i1 false)
  call void @llvm.memcpy.p0.p0.i64(ptr align 8 %_16269, ptr align 8 %_6116, i64 32, i1 false)
  %_6117 = load i64, ptr %j51, align 8, !noundef !3
  %_6118 = icmp ult i64 %_6117, 4
  br i1 %_6118, label %bb2531, label %panic133

panic132:                                         ; preds = %bb2528
; call core::panicking::panic_bounds_check
  call void @_RNvNtCs8OG1GeFZzXY_4core9panicking18panic_bounds_check(i64 noundef %_6109, i64 noundef 4, ptr noalias noundef readonly align 8 captures(address, read_provenance) dereferenceable(24) @alloc_318a8e9150e07c5cbdd12b81bfa85a33) #28
  unreachable

bb2531:                                           ; preds = %bb2530
  %49 = getelementptr inbounds nuw i64, ptr %_16269, i64 %_6117
  %_6115 = load i64, ptr %49, align 8, !noundef !3
  %_13890 = zext i64 %_6108 to i128
  %_13894 = zext i64 %_6115 to i128
  %_13891 = mul i128 %_13775, %_13894
  %_13889 = add i128 %_13890, %_13891
  %50 = load i64, ptr %carry48, align 8, !noundef !3
  %_13892 = zext i64 %50 to i128
  %_13888 = add i128 %_13889, %_13892
  %_13893 = lshr i128 %_13888, 64
  %51 = trunc i128 %_13893 to i64
  store i64 %51, ptr %carry48, align 8
  %_6107 = trunc i128 %_13888 to i64
  %_6121 = load i64, ptr %j51, align 8, !noundef !3
  %_6122 = load i64, ptr %i47, align 8, !noundef !3
  %_6120 = add i64 %_6121, %_6122
  %_6119 = urem i64 %_6120, 4
  %_6123 = icmp ult i64 %_6119, 4
  br i1 %_6123, label %bb2533, label %panic134

panic133:                                         ; preds = %bb2530
; call core::panicking::panic_bounds_check
  call void @_RNvNtCs8OG1GeFZzXY_4core9panicking18panic_bounds_check(i64 noundef %_6117, i64 noundef 4, ptr noalias noundef readonly align 8 captures(address, read_provenance) dereferenceable(24) @alloc_41d98e10d851b9e3632a1b50dd5ef0a8) #28
  unreachable

bb2533:                                           ; preds = %bb2531
  %52 = getelementptr inbounds nuw i64, ptr %r, i64 %_6119
  store i64 %_6107, ptr %52, align 8
  call void @llvm.lifetime.end.p0(ptr %_16269)
  br label %bb2535

panic134:                                         ; preds = %bb2531
; call core::panicking::panic_bounds_check
  call void @_RNvNtCs8OG1GeFZzXY_4core9panicking18panic_bounds_check(i64 noundef %_6119, i64 noundef 4, ptr noalias noundef readonly align 8 captures(address, read_provenance) dereferenceable(24) @alloc_3736e7aeed652b81b744fa79f14aba19) #28
  unreachable

bb2542:                                           ; preds = %bb2535
  br label %bb2543

bb2536:                                           ; preds = %bb2535
  %_6130 = load i64, ptr %j51, align 8, !noundef !3
  %_6131 = load i64, ptr %i47, align 8, !noundef !3
  %_6129 = add i64 %_6130, %_6131
  %_6128 = urem i64 %_6129, 4
  %_6133 = icmp ult i64 %_6128, 4
  br i1 %_6133, label %bb2538, label %panic135

bb2543:                                           ; preds = %bb2541, %bb2542
  %53 = load i64, ptr %j51, align 8, !noundef !3
  %54 = add i64 %53, 1
  store i64 %54, ptr %j51, align 8
  %_6144 = load i64, ptr %j51, align 8, !noundef !3
  %_6143 = icmp ult i64 %_6144, 4
  br i1 %_6143, label %bb2544, label %bb2550

bb2538:                                           ; preds = %bb2536
  %55 = getelementptr inbounds nuw i64, ptr %r, i64 %_6128
  %_6127 = load i64, ptr %55, align 8, !noundef !3
  call void @llvm.lifetime.start.p0(ptr %_16270)
  call void @llvm.memcpy.p0.p0.i64(ptr align 8 %_6135, ptr align 8 @alloc_4ac3c5d41a46e3ab32675db08dd7fc71, i64 32, i1 false)
  call void @llvm.memcpy.p0.p0.i64(ptr align 8 %_16270, ptr align 8 %_6135, i64 32, i1 false)
  %_6136 = load i64, ptr %j51, align 8, !noundef !3
  %_6137 = icmp ult i64 %_6136, 4
  br i1 %_6137, label %bb2539, label %panic136

panic135:                                         ; preds = %bb2536
; call core::panicking::panic_bounds_check
  call void @_RNvNtCs8OG1GeFZzXY_4core9panicking18panic_bounds_check(i64 noundef %_6128, i64 noundef 4, ptr noalias noundef readonly align 8 captures(address, read_provenance) dereferenceable(24) @alloc_318a8e9150e07c5cbdd12b81bfa85a33) #28
  unreachable

bb2539:                                           ; preds = %bb2538
  %56 = getelementptr inbounds nuw i64, ptr %_16270, i64 %_6136
  %_6134 = load i64, ptr %56, align 8, !noundef !3
  %_13897 = zext i64 %_6127 to i128
  %_13901 = zext i64 %_6134 to i128
  %_13898 = mul i128 %_13775, %_13901
  %_13896 = add i128 %_13897, %_13898
  %57 = load i64, ptr %carry48, align 8, !noundef !3
  %_13899 = zext i64 %57 to i128
  %_13895 = add i128 %_13896, %_13899
  %_13900 = lshr i128 %_13895, 64
  %58 = trunc i128 %_13900 to i64
  store i64 %58, ptr %carry48, align 8
  %_6126 = trunc i128 %_13895 to i64
  %_6140 = load i64, ptr %j51, align 8, !noundef !3
  %_6141 = load i64, ptr %i47, align 8, !noundef !3
  %_6139 = add i64 %_6140, %_6141
  %_6138 = urem i64 %_6139, 4
  %_6142 = icmp ult i64 %_6138, 4
  br i1 %_6142, label %bb2541, label %panic137

panic136:                                         ; preds = %bb2538
; call core::panicking::panic_bounds_check
  call void @_RNvNtCs8OG1GeFZzXY_4core9panicking18panic_bounds_check(i64 noundef %_6136, i64 noundef 4, ptr noalias noundef readonly align 8 captures(address, read_provenance) dereferenceable(24) @alloc_41d98e10d851b9e3632a1b50dd5ef0a8) #28
  unreachable

bb2541:                                           ; preds = %bb2539
  %59 = getelementptr inbounds nuw i64, ptr %r, i64 %_6138
  store i64 %_6126, ptr %59, align 8
  call void @llvm.lifetime.end.p0(ptr %_16270)
  br label %bb2543

panic137:                                         ; preds = %bb2539
; call core::panicking::panic_bounds_check
  call void @_RNvNtCs8OG1GeFZzXY_4core9panicking18panic_bounds_check(i64 noundef %_6138, i64 noundef 4, ptr noalias noundef readonly align 8 captures(address, read_provenance) dereferenceable(24) @alloc_3736e7aeed652b81b744fa79f14aba19) #28
  unreachable

bb2550:                                           ; preds = %bb2543
  br label %bb2551

bb2544:                                           ; preds = %bb2543
  %_6149 = load i64, ptr %j51, align 8, !noundef !3
  %_6150 = load i64, ptr %i47, align 8, !noundef !3
  %_6148 = add i64 %_6149, %_6150
  %_6147 = urem i64 %_6148, 4
  %_6152 = icmp ult i64 %_6147, 4
  br i1 %_6152, label %bb2546, label %panic138

bb2551:                                           ; preds = %bb2549, %bb2550
  %60 = load i64, ptr %j51, align 8, !noundef !3
  %61 = add i64 %60, 1
  store i64 %61, ptr %j51, align 8
  %_6163 = load i64, ptr %j51, align 8, !noundef !3
  %_6162 = icmp ult i64 %_6163, 4
  br i1 %_6162, label %bb2552, label %bb2558

bb2546:                                           ; preds = %bb2544
  %62 = getelementptr inbounds nuw i64, ptr %r, i64 %_6147
  %_6146 = load i64, ptr %62, align 8, !noundef !3
  call void @llvm.lifetime.start.p0(ptr %_16271)
  call void @llvm.memcpy.p0.p0.i64(ptr align 8 %_6154, ptr align 8 @alloc_4ac3c5d41a46e3ab32675db08dd7fc71, i64 32, i1 false)
  call void @llvm.memcpy.p0.p0.i64(ptr align 8 %_16271, ptr align 8 %_6154, i64 32, i1 false)
  %_6155 = load i64, ptr %j51, align 8, !noundef !3
  %_6156 = icmp ult i64 %_6155, 4
  br i1 %_6156, label %bb2547, label %panic139

panic138:                                         ; preds = %bb2544
; call core::panicking::panic_bounds_check
  call void @_RNvNtCs8OG1GeFZzXY_4core9panicking18panic_bounds_check(i64 noundef %_6147, i64 noundef 4, ptr noalias noundef readonly align 8 captures(address, read_provenance) dereferenceable(24) @alloc_318a8e9150e07c5cbdd12b81bfa85a33) #28
  unreachable

bb2547:                                           ; preds = %bb2546
  %63 = getelementptr inbounds nuw i64, ptr %_16271, i64 %_6155
  %_6153 = load i64, ptr %63, align 8, !noundef !3
  %_13904 = zext i64 %_6146 to i128
  %_13908 = zext i64 %_6153 to i128
  %_13905 = mul i128 %_13775, %_13908
  %_13903 = add i128 %_13904, %_13905
  %64 = load i64, ptr %carry48, align 8, !noundef !3
  %_13906 = zext i64 %64 to i128
  %_13902 = add i128 %_13903, %_13906
  %_13907 = lshr i128 %_13902, 64
  %65 = trunc i128 %_13907 to i64
  store i64 %65, ptr %carry48, align 8
  %_6145 = trunc i128 %_13902 to i64
  %_6159 = load i64, ptr %j51, align 8, !noundef !3
  %_6160 = load i64, ptr %i47, align 8, !noundef !3
  %_6158 = add i64 %_6159, %_6160
  %_6157 = urem i64 %_6158, 4
  %_6161 = icmp ult i64 %_6157, 4
  br i1 %_6161, label %bb2549, label %panic140

panic139:                                         ; preds = %bb2546
; call core::panicking::panic_bounds_check
  call void @_RNvNtCs8OG1GeFZzXY_4core9panicking18panic_bounds_check(i64 noundef %_6155, i64 noundef 4, ptr noalias noundef readonly align 8 captures(address, read_provenance) dereferenceable(24) @alloc_41d98e10d851b9e3632a1b50dd5ef0a8) #28
  unreachable

bb2549:                                           ; preds = %bb2547
  %66 = getelementptr inbounds nuw i64, ptr %r, i64 %_6157
  store i64 %_6145, ptr %66, align 8
  call void @llvm.lifetime.end.p0(ptr %_16271)
  br label %bb2551

panic140:                                         ; preds = %bb2547
; call core::panicking::panic_bounds_check
  call void @_RNvNtCs8OG1GeFZzXY_4core9panicking18panic_bounds_check(i64 noundef %_6157, i64 noundef 4, ptr noalias noundef readonly align 8 captures(address, read_provenance) dereferenceable(24) @alloc_3736e7aeed652b81b744fa79f14aba19) #28
  unreachable

bb2558:                                           ; preds = %bb2551
  br label %bb2559

bb2552:                                           ; preds = %bb2551
  %_6168 = load i64, ptr %j51, align 8, !noundef !3
  %_6169 = load i64, ptr %i47, align 8, !noundef !3
  %_6167 = add i64 %_6168, %_6169
  %_6166 = urem i64 %_6167, 4
  %_6171 = icmp ult i64 %_6166, 4
  br i1 %_6171, label %bb2554, label %panic141

bb2559:                                           ; preds = %bb2557, %bb2558
  %67 = load i64, ptr %j51, align 8, !noundef !3
  %68 = add i64 %67, 1
  store i64 %68, ptr %j51, align 8
  %_6182 = load i64, ptr %j51, align 8, !noundef !3
  %_6181 = icmp ult i64 %_6182, 4
  br i1 %_6181, label %bb2560, label %bb2566

bb2554:                                           ; preds = %bb2552
  %69 = getelementptr inbounds nuw i64, ptr %r, i64 %_6166
  %_6165 = load i64, ptr %69, align 8, !noundef !3
  call void @llvm.lifetime.start.p0(ptr %_16272)
  call void @llvm.memcpy.p0.p0.i64(ptr align 8 %_6173, ptr align 8 @alloc_4ac3c5d41a46e3ab32675db08dd7fc71, i64 32, i1 false)
  call void @llvm.memcpy.p0.p0.i64(ptr align 8 %_16272, ptr align 8 %_6173, i64 32, i1 false)
  %_6174 = load i64, ptr %j51, align 8, !noundef !3
  %_6175 = icmp ult i64 %_6174, 4
  br i1 %_6175, label %bb2555, label %panic142

panic141:                                         ; preds = %bb2552
; call core::panicking::panic_bounds_check
  call void @_RNvNtCs8OG1GeFZzXY_4core9panicking18panic_bounds_check(i64 noundef %_6166, i64 noundef 4, ptr noalias noundef readonly align 8 captures(address, read_provenance) dereferenceable(24) @alloc_318a8e9150e07c5cbdd12b81bfa85a33) #28
  unreachable

bb2555:                                           ; preds = %bb2554
  %70 = getelementptr inbounds nuw i64, ptr %_16272, i64 %_6174
  %_6172 = load i64, ptr %70, align 8, !noundef !3
  %_13911 = zext i64 %_6165 to i128
  %_13915 = zext i64 %_6172 to i128
  %_13912 = mul i128 %_13775, %_13915
  %_13910 = add i128 %_13911, %_13912
  %71 = load i64, ptr %carry48, align 8, !noundef !3
  %_13913 = zext i64 %71 to i128
  %_13909 = add i128 %_13910, %_13913
  %_13914 = lshr i128 %_13909, 64
  %72 = trunc i128 %_13914 to i64
  store i64 %72, ptr %carry48, align 8
  %_6164 = trunc i128 %_13909 to i64
  %_6178 = load i64, ptr %j51, align 8, !noundef !3
  %_6179 = load i64, ptr %i47, align 8, !noundef !3
  %_6177 = add i64 %_6178, %_6179
  %_6176 = urem i64 %_6177, 4
  %_6180 = icmp ult i64 %_6176, 4
  br i1 %_6180, label %bb2557, label %panic143

panic142:                                         ; preds = %bb2554
; call core::panicking::panic_bounds_check
  call void @_RNvNtCs8OG1GeFZzXY_4core9panicking18panic_bounds_check(i64 noundef %_6174, i64 noundef 4, ptr noalias noundef readonly align 8 captures(address, read_provenance) dereferenceable(24) @alloc_41d98e10d851b9e3632a1b50dd5ef0a8) #28
  unreachable

bb2557:                                           ; preds = %bb2555
  %73 = getelementptr inbounds nuw i64, ptr %r, i64 %_6176
  store i64 %_6164, ptr %73, align 8
  call void @llvm.lifetime.end.p0(ptr %_16272)
  br label %bb2559

panic143:                                         ; preds = %bb2555
; call core::panicking::panic_bounds_check
  call void @_RNvNtCs8OG1GeFZzXY_4core9panicking18panic_bounds_check(i64 noundef %_6176, i64 noundef 4, ptr noalias noundef readonly align 8 captures(address, read_provenance) dereferenceable(24) @alloc_3736e7aeed652b81b744fa79f14aba19) #28
  unreachable

bb2566:                                           ; preds = %bb2559
  br label %bb2567

bb2560:                                           ; preds = %bb2559
  %_6187 = load i64, ptr %j51, align 8, !noundef !3
  %_6188 = load i64, ptr %i47, align 8, !noundef !3
  %_6186 = add i64 %_6187, %_6188
  %_6185 = urem i64 %_6186, 4
  %_6190 = icmp ult i64 %_6185, 4
  br i1 %_6190, label %bb2562, label %panic144

bb2567:                                           ; preds = %bb2565, %bb2566
  %74 = load i64, ptr %j51, align 8, !noundef !3
  %75 = add i64 %74, 1
  store i64 %75, ptr %j51, align 8
  %_6201 = load i64, ptr %j51, align 8, !noundef !3
  %_6200 = icmp ult i64 %_6201, 4
  br i1 %_6200, label %bb2568, label %bb2574

bb2562:                                           ; preds = %bb2560
  %76 = getelementptr inbounds nuw i64, ptr %r, i64 %_6185
  %_6184 = load i64, ptr %76, align 8, !noundef !3
  call void @llvm.lifetime.start.p0(ptr %_16273)
  call void @llvm.memcpy.p0.p0.i64(ptr align 8 %_6192, ptr align 8 @alloc_4ac3c5d41a46e3ab32675db08dd7fc71, i64 32, i1 false)
  call void @llvm.memcpy.p0.p0.i64(ptr align 8 %_16273, ptr align 8 %_6192, i64 32, i1 false)
  %_6193 = load i64, ptr %j51, align 8, !noundef !3
  %_6194 = icmp ult i64 %_6193, 4
  br i1 %_6194, label %bb2563, label %panic145

panic144:                                         ; preds = %bb2560
; call core::panicking::panic_bounds_check
  call void @_RNvNtCs8OG1GeFZzXY_4core9panicking18panic_bounds_check(i64 noundef %_6185, i64 noundef 4, ptr noalias noundef readonly align 8 captures(address, read_provenance) dereferenceable(24) @alloc_318a8e9150e07c5cbdd12b81bfa85a33) #28
  unreachable

bb2563:                                           ; preds = %bb2562
  %77 = getelementptr inbounds nuw i64, ptr %_16273, i64 %_6193
  %_6191 = load i64, ptr %77, align 8, !noundef !3
  %_13918 = zext i64 %_6184 to i128
  %_13922 = zext i64 %_6191 to i128
  %_13919 = mul i128 %_13775, %_13922
  %_13917 = add i128 %_13918, %_13919
  %78 = load i64, ptr %carry48, align 8, !noundef !3
  %_13920 = zext i64 %78 to i128
  %_13916 = add i128 %_13917, %_13920
  %_13921 = lshr i128 %_13916, 64
  %79 = trunc i128 %_13921 to i64
  store i64 %79, ptr %carry48, align 8
  %_6183 = trunc i128 %_13916 to i64
  %_6197 = load i64, ptr %j51, align 8, !noundef !3
  %_6198 = load i64, ptr %i47, align 8, !noundef !3
  %_6196 = add i64 %_6197, %_6198
  %_6195 = urem i64 %_6196, 4
  %_6199 = icmp ult i64 %_6195, 4
  br i1 %_6199, label %bb2565, label %panic146

panic145:                                         ; preds = %bb2562
; call core::panicking::panic_bounds_check
  call void @_RNvNtCs8OG1GeFZzXY_4core9panicking18panic_bounds_check(i64 noundef %_6193, i64 noundef 4, ptr noalias noundef readonly align 8 captures(address, read_provenance) dereferenceable(24) @alloc_41d98e10d851b9e3632a1b50dd5ef0a8) #28
  unreachable

bb2565:                                           ; preds = %bb2563
  %80 = getelementptr inbounds nuw i64, ptr %r, i64 %_6195
  store i64 %_6183, ptr %80, align 8
  call void @llvm.lifetime.end.p0(ptr %_16273)
  br label %bb2567

panic146:                                         ; preds = %bb2563
; call core::panicking::panic_bounds_check
  call void @_RNvNtCs8OG1GeFZzXY_4core9panicking18panic_bounds_check(i64 noundef %_6195, i64 noundef 4, ptr noalias noundef readonly align 8 captures(address, read_provenance) dereferenceable(24) @alloc_3736e7aeed652b81b744fa79f14aba19) #28
  unreachable

bb2574:                                           ; preds = %bb2567
  br label %bb2575

bb2568:                                           ; preds = %bb2567
  %_6206 = load i64, ptr %j51, align 8, !noundef !3
  %_6207 = load i64, ptr %i47, align 8, !noundef !3
  %_6205 = add i64 %_6206, %_6207
  %_6204 = urem i64 %_6205, 4
  %_6209 = icmp ult i64 %_6204, 4
  br i1 %_6209, label %bb2570, label %panic147

bb2575:                                           ; preds = %bb2573, %bb2574
  %81 = load i64, ptr %j51, align 8, !noundef !3
  %82 = add i64 %81, 1
  store i64 %82, ptr %j51, align 8
  %_6220 = load i64, ptr %j51, align 8, !noundef !3
  %_6219 = icmp ult i64 %_6220, 4
  br i1 %_6219, label %bb2576, label %bb2582

bb2570:                                           ; preds = %bb2568
  %83 = getelementptr inbounds nuw i64, ptr %r, i64 %_6204
  %_6203 = load i64, ptr %83, align 8, !noundef !3
  call void @llvm.lifetime.start.p0(ptr %_16274)
  call void @llvm.memcpy.p0.p0.i64(ptr align 8 %_6211, ptr align 8 @alloc_4ac3c5d41a46e3ab32675db08dd7fc71, i64 32, i1 false)
  call void @llvm.memcpy.p0.p0.i64(ptr align 8 %_16274, ptr align 8 %_6211, i64 32, i1 false)
  %_6212 = load i64, ptr %j51, align 8, !noundef !3
  %_6213 = icmp ult i64 %_6212, 4
  br i1 %_6213, label %bb2571, label %panic148

panic147:                                         ; preds = %bb2568
; call core::panicking::panic_bounds_check
  call void @_RNvNtCs8OG1GeFZzXY_4core9panicking18panic_bounds_check(i64 noundef %_6204, i64 noundef 4, ptr noalias noundef readonly align 8 captures(address, read_provenance) dereferenceable(24) @alloc_318a8e9150e07c5cbdd12b81bfa85a33) #28
  unreachable

bb2571:                                           ; preds = %bb2570
  %84 = getelementptr inbounds nuw i64, ptr %_16274, i64 %_6212
  %_6210 = load i64, ptr %84, align 8, !noundef !3
  %_13925 = zext i64 %_6203 to i128
  %_13929 = zext i64 %_6210 to i128
  %_13926 = mul i128 %_13775, %_13929
  %_13924 = add i128 %_13925, %_13926
  %85 = load i64, ptr %carry48, align 8, !noundef !3
  %_13927 = zext i64 %85 to i128
  %_13923 = add i128 %_13924, %_13927
  %_13928 = lshr i128 %_13923, 64
  %86 = trunc i128 %_13928 to i64
  store i64 %86, ptr %carry48, align 8
  %_6202 = trunc i128 %_13923 to i64
  %_6216 = load i64, ptr %j51, align 8, !noundef !3
  %_6217 = load i64, ptr %i47, align 8, !noundef !3
  %_6215 = add i64 %_6216, %_6217
  %_6214 = urem i64 %_6215, 4
  %_6218 = icmp ult i64 %_6214, 4
  br i1 %_6218, label %bb2573, label %panic149

panic148:                                         ; preds = %bb2570
; call core::panicking::panic_bounds_check
  call void @_RNvNtCs8OG1GeFZzXY_4core9panicking18panic_bounds_check(i64 noundef %_6212, i64 noundef 4, ptr noalias noundef readonly align 8 captures(address, read_provenance) dereferenceable(24) @alloc_41d98e10d851b9e3632a1b50dd5ef0a8) #28
  unreachable

bb2573:                                           ; preds = %bb2571
  %87 = getelementptr inbounds nuw i64, ptr %r, i64 %_6214
  store i64 %_6202, ptr %87, align 8
  call void @llvm.lifetime.end.p0(ptr %_16274)
  br label %bb2575

panic149:                                         ; preds = %bb2571
; call core::panicking::panic_bounds_check
  call void @_RNvNtCs8OG1GeFZzXY_4core9panicking18panic_bounds_check(i64 noundef %_6214, i64 noundef 4, ptr noalias noundef readonly align 8 captures(address, read_provenance) dereferenceable(24) @alloc_3736e7aeed652b81b744fa79f14aba19) #28
  unreachable

bb2582:                                           ; preds = %bb2575
  br label %bb2583

bb2576:                                           ; preds = %bb2575
  %_6225 = load i64, ptr %j51, align 8, !noundef !3
  %_6226 = load i64, ptr %i47, align 8, !noundef !3
  %_6224 = add i64 %_6225, %_6226
  %_6223 = urem i64 %_6224, 4
  %_6228 = icmp ult i64 %_6223, 4
  br i1 %_6228, label %bb2578, label %panic150

bb2583:                                           ; preds = %bb2581, %bb2582
  %88 = load i64, ptr %j51, align 8, !noundef !3
  %89 = add i64 %88, 1
  store i64 %89, ptr %j51, align 8
  %_6239 = load i64, ptr %j51, align 8, !noundef !3
  %_6238 = icmp ult i64 %_6239, 4
  br i1 %_6238, label %bb2584, label %bb2590

bb2578:                                           ; preds = %bb2576
  %90 = getelementptr inbounds nuw i64, ptr %r, i64 %_6223
  %_6222 = load i64, ptr %90, align 8, !noundef !3
  call void @llvm.lifetime.start.p0(ptr %_16275)
  call void @llvm.memcpy.p0.p0.i64(ptr align 8 %_6230, ptr align 8 @alloc_4ac3c5d41a46e3ab32675db08dd7fc71, i64 32, i1 false)
  call void @llvm.memcpy.p0.p0.i64(ptr align 8 %_16275, ptr align 8 %_6230, i64 32, i1 false)
  %_6231 = load i64, ptr %j51, align 8, !noundef !3
  %_6232 = icmp ult i64 %_6231, 4
  br i1 %_6232, label %bb2579, label %panic151

panic150:                                         ; preds = %bb2576
; call core::panicking::panic_bounds_check
  call void @_RNvNtCs8OG1GeFZzXY_4core9panicking18panic_bounds_check(i64 noundef %_6223, i64 noundef 4, ptr noalias noundef readonly align 8 captures(address, read_provenance) dereferenceable(24) @alloc_318a8e9150e07c5cbdd12b81bfa85a33) #28
  unreachable

bb2579:                                           ; preds = %bb2578
  %91 = getelementptr inbounds nuw i64, ptr %_16275, i64 %_6231
  %_6229 = load i64, ptr %91, align 8, !noundef !3
  %_13932 = zext i64 %_6222 to i128
  %_13936 = zext i64 %_6229 to i128
  %_13933 = mul i128 %_13775, %_13936
  %_13931 = add i128 %_13932, %_13933
  %92 = load i64, ptr %carry48, align 8, !noundef !3
  %_13934 = zext i64 %92 to i128
  %_13930 = add i128 %_13931, %_13934
  %_13935 = lshr i128 %_13930, 64
  %93 = trunc i128 %_13935 to i64
  store i64 %93, ptr %carry48, align 8
  %_6221 = trunc i128 %_13930 to i64
  %_6235 = load i64, ptr %j51, align 8, !noundef !3
  %_6236 = load i64, ptr %i47, align 8, !noundef !3
  %_6234 = add i64 %_6235, %_6236
  %_6233 = urem i64 %_6234, 4
  %_6237 = icmp ult i64 %_6233, 4
  br i1 %_6237, label %bb2581, label %panic152

panic151:                                         ; preds = %bb2578
; call core::panicking::panic_bounds_check
  call void @_RNvNtCs8OG1GeFZzXY_4core9panicking18panic_bounds_check(i64 noundef %_6231, i64 noundef 4, ptr noalias noundef readonly align 8 captures(address, read_provenance) dereferenceable(24) @alloc_41d98e10d851b9e3632a1b50dd5ef0a8) #28
  unreachable

bb2581:                                           ; preds = %bb2579
  %94 = getelementptr inbounds nuw i64, ptr %r, i64 %_6233
  store i64 %_6221, ptr %94, align 8
  call void @llvm.lifetime.end.p0(ptr %_16275)
  br label %bb2583

panic152:                                         ; preds = %bb2579
; call core::panicking::panic_bounds_check
  call void @_RNvNtCs8OG1GeFZzXY_4core9panicking18panic_bounds_check(i64 noundef %_6233, i64 noundef 4, ptr noalias noundef readonly align 8 captures(address, read_provenance) dereferenceable(24) @alloc_3736e7aeed652b81b744fa79f14aba19) #28
  unreachable

bb2590:                                           ; preds = %bb2583
  br label %bb2591

bb2584:                                           ; preds = %bb2583
  %_6244 = load i64, ptr %j51, align 8, !noundef !3
  %_6245 = load i64, ptr %i47, align 8, !noundef !3
  %_6243 = add i64 %_6244, %_6245
  %_6242 = urem i64 %_6243, 4
  %_6247 = icmp ult i64 %_6242, 4
  br i1 %_6247, label %bb2586, label %panic153

bb2591:                                           ; preds = %bb2589, %bb2590
  %95 = load i64, ptr %j51, align 8, !noundef !3
  %96 = add i64 %95, 1
  store i64 %96, ptr %j51, align 8
  %_6258 = load i64, ptr %j51, align 8, !noundef !3
  %_6257 = icmp ult i64 %_6258, 4
  br i1 %_6257, label %bb2592, label %bb2598

bb2586:                                           ; preds = %bb2584
  %97 = getelementptr inbounds nuw i64, ptr %r, i64 %_6242
  %_6241 = load i64, ptr %97, align 8, !noundef !3
  call void @llvm.lifetime.start.p0(ptr %_16276)
  call void @llvm.memcpy.p0.p0.i64(ptr align 8 %_6249, ptr align 8 @alloc_4ac3c5d41a46e3ab32675db08dd7fc71, i64 32, i1 false)
  call void @llvm.memcpy.p0.p0.i64(ptr align 8 %_16276, ptr align 8 %_6249, i64 32, i1 false)
  %_6250 = load i64, ptr %j51, align 8, !noundef !3
  %_6251 = icmp ult i64 %_6250, 4
  br i1 %_6251, label %bb2587, label %panic154

panic153:                                         ; preds = %bb2584
; call core::panicking::panic_bounds_check
  call void @_RNvNtCs8OG1GeFZzXY_4core9panicking18panic_bounds_check(i64 noundef %_6242, i64 noundef 4, ptr noalias noundef readonly align 8 captures(address, read_provenance) dereferenceable(24) @alloc_318a8e9150e07c5cbdd12b81bfa85a33) #28
  unreachable

bb2587:                                           ; preds = %bb2586
  %98 = getelementptr inbounds nuw i64, ptr %_16276, i64 %_6250
  %_6248 = load i64, ptr %98, align 8, !noundef !3
  %_13939 = zext i64 %_6241 to i128
  %_13943 = zext i64 %_6248 to i128
  %_13940 = mul i128 %_13775, %_13943
  %_13938 = add i128 %_13939, %_13940
  %99 = load i64, ptr %carry48, align 8, !noundef !3
  %_13941 = zext i64 %99 to i128
  %_13937 = add i128 %_13938, %_13941
  %_13942 = lshr i128 %_13937, 64
  %100 = trunc i128 %_13942 to i64
  store i64 %100, ptr %carry48, align 8
  %_6240 = trunc i128 %_13937 to i64
  %_6254 = load i64, ptr %j51, align 8, !noundef !3
  %_6255 = load i64, ptr %i47, align 8, !noundef !3
  %_6253 = add i64 %_6254, %_6255
  %_6252 = urem i64 %_6253, 4
  %_6256 = icmp ult i64 %_6252, 4
  br i1 %_6256, label %bb2589, label %panic155

panic154:                                         ; preds = %bb2586
; call core::panicking::panic_bounds_check
  call void @_RNvNtCs8OG1GeFZzXY_4core9panicking18panic_bounds_check(i64 noundef %_6250, i64 noundef 4, ptr noalias noundef readonly align 8 captures(address, read_provenance) dereferenceable(24) @alloc_41d98e10d851b9e3632a1b50dd5ef0a8) #28
  unreachable

bb2589:                                           ; preds = %bb2587
  %101 = getelementptr inbounds nuw i64, ptr %r, i64 %_6252
  store i64 %_6240, ptr %101, align 8
  call void @llvm.lifetime.end.p0(ptr %_16276)
  br label %bb2591

panic155:                                         ; preds = %bb2587
; call core::panicking::panic_bounds_check
  call void @_RNvNtCs8OG1GeFZzXY_4core9panicking18panic_bounds_check(i64 noundef %_6252, i64 noundef 4, ptr noalias noundef readonly align 8 captures(address, read_provenance) dereferenceable(24) @alloc_3736e7aeed652b81b744fa79f14aba19) #28
  unreachable

bb2598:                                           ; preds = %bb2591
  br label %bb2599

bb2592:                                           ; preds = %bb2591
  %_6263 = load i64, ptr %j51, align 8, !noundef !3
  %_6264 = load i64, ptr %i47, align 8, !noundef !3
  %_6262 = add i64 %_6263, %_6264
  %_6261 = urem i64 %_6262, 4
  %_6266 = icmp ult i64 %_6261, 4
  br i1 %_6266, label %bb2594, label %panic156

bb2599:                                           ; preds = %bb2597, %bb2598
  %102 = load i64, ptr %j51, align 8, !noundef !3
  %103 = add i64 %102, 1
  store i64 %103, ptr %j51, align 8
  call void @llvm.lifetime.end.p0(ptr %j51)
  %_6276 = load i64, ptr %i47, align 8, !noundef !3
  %_6277 = icmp ult i64 %_6276, 4
  br i1 %_6277, label %bb2600, label %panic159

bb2594:                                           ; preds = %bb2592
  %104 = getelementptr inbounds nuw i64, ptr %r, i64 %_6261
  %_6260 = load i64, ptr %104, align 8, !noundef !3
  call void @llvm.lifetime.start.p0(ptr %_16277)
  call void @llvm.memcpy.p0.p0.i64(ptr align 8 %_6268, ptr align 8 @alloc_4ac3c5d41a46e3ab32675db08dd7fc71, i64 32, i1 false)
  call void @llvm.memcpy.p0.p0.i64(ptr align 8 %_16277, ptr align 8 %_6268, i64 32, i1 false)
  %_6269 = load i64, ptr %j51, align 8, !noundef !3
  %_6270 = icmp ult i64 %_6269, 4
  br i1 %_6270, label %bb2595, label %panic157

panic156:                                         ; preds = %bb2592
; call core::panicking::panic_bounds_check
  call void @_RNvNtCs8OG1GeFZzXY_4core9panicking18panic_bounds_check(i64 noundef %_6261, i64 noundef 4, ptr noalias noundef readonly align 8 captures(address, read_provenance) dereferenceable(24) @alloc_318a8e9150e07c5cbdd12b81bfa85a33) #28
  unreachable

bb2595:                                           ; preds = %bb2594
  %105 = getelementptr inbounds nuw i64, ptr %_16277, i64 %_6269
  %_6267 = load i64, ptr %105, align 8, !noundef !3
  %_13946 = zext i64 %_6260 to i128
  %_13950 = zext i64 %_6267 to i128
  %_13947 = mul i128 %_13775, %_13950
  %_13945 = add i128 %_13946, %_13947
  %106 = load i64, ptr %carry48, align 8, !noundef !3
  %_13948 = zext i64 %106 to i128
  %_13944 = add i128 %_13945, %_13948
  %_13949 = lshr i128 %_13944, 64
  %107 = trunc i128 %_13949 to i64
  store i64 %107, ptr %carry48, align 8
  %_6259 = trunc i128 %_13944 to i64
  %_6273 = load i64, ptr %j51, align 8, !noundef !3
  %_6274 = load i64, ptr %i47, align 8, !noundef !3
  %_6272 = add i64 %_6273, %_6274
  %_6271 = urem i64 %_6272, 4
  %_6275 = icmp ult i64 %_6271, 4
  br i1 %_6275, label %bb2597, label %panic158

panic157:                                         ; preds = %bb2594
; call core::panicking::panic_bounds_check
  call void @_RNvNtCs8OG1GeFZzXY_4core9panicking18panic_bounds_check(i64 noundef %_6269, i64 noundef 4, ptr noalias noundef readonly align 8 captures(address, read_provenance) dereferenceable(24) @alloc_41d98e10d851b9e3632a1b50dd5ef0a8) #28
  unreachable

bb2597:                                           ; preds = %bb2595
  %108 = getelementptr inbounds nuw i64, ptr %r, i64 %_6271
  store i64 %_6259, ptr %108, align 8
  call void @llvm.lifetime.end.p0(ptr %_16277)
  br label %bb2599

panic158:                                         ; preds = %bb2595
; call core::panicking::panic_bounds_check
  call void @_RNvNtCs8OG1GeFZzXY_4core9panicking18panic_bounds_check(i64 noundef %_6271, i64 noundef 4, ptr noalias noundef readonly align 8 captures(address, read_provenance) dereferenceable(24) @alloc_3736e7aeed652b81b744fa79f14aba19) #28
  unreachable

bb2600:                                           ; preds = %bb2599
  %109 = getelementptr inbounds nuw i64, ptr %r, i64 %_6276
  %110 = load i64, ptr %carry48, align 8, !noundef !3
  store i64 %110, ptr %109, align 8
  br label %bb2601

panic159:                                         ; preds = %bb2599
; call core::panicking::panic_bounds_check
  call void @_RNvNtCs8OG1GeFZzXY_4core9panicking18panic_bounds_check(i64 noundef %_6276, i64 noundef 4, ptr noalias noundef readonly align 8 captures(address, read_provenance) dereferenceable(24) @alloc_e07dad0bc349823f26226a80bb150e8a) #28
  unreachable

bb2800:                                           ; preds = %bb2601
  br label %bb2801

bb2602:                                           ; preds = %bb2601
  %_6282 = load i64, ptr %i47, align 8, !noundef !3
  %_6283 = icmp ult i64 %_6282, 4
  br i1 %_6283, label %bb2603, label %panic160

bb2801:                                           ; preds = %bb2799, %bb2800
  %111 = load i64, ptr %i47, align 8, !noundef !3
  %112 = add i64 %111, 1
  store i64 %112, ptr %i47, align 8
  %_6761 = load i64, ptr %i47, align 8, !noundef !3
  %_6760 = icmp ult i64 %_6761, 4
  br i1 %_6760, label %bb2802, label %bb3000

bb2603:                                           ; preds = %bb2602
  %113 = getelementptr inbounds nuw i64, ptr %r, i64 %_6282
  %_6281 = load i64, ptr %113, align 8, !noundef !3
  %k161 = mul i64 %_6281, -8659850874718887031
  store i64 0, ptr %carry52, align 8
  %_6286 = load i64, ptr %i47, align 8, !noundef !3
  %_6287 = icmp ult i64 %_6286, 4
  br i1 %_6287, label %bb2604, label %panic162

panic160:                                         ; preds = %bb2602
; call core::panicking::panic_bounds_check
  call void @_RNvNtCs8OG1GeFZzXY_4core9panicking18panic_bounds_check(i64 noundef %_6282, i64 noundef 4, ptr noalias noundef readonly align 8 captures(address, read_provenance) dereferenceable(24) @alloc_ffde8619649764ddfa94b9917826fa38) #28
  unreachable

bb2604:                                           ; preds = %bb2603
  %114 = getelementptr inbounds nuw i64, ptr %r, i64 %_6286
  %_6285 = load i64, ptr %114, align 8, !noundef !3
  call void @llvm.lifetime.start.p0(ptr %_16278)
  call void @llvm.memcpy.p0.p0.i64(ptr align 8 %_6289, ptr align 8 @alloc_4ac3c5d41a46e3ab32675db08dd7fc71, i64 32, i1 false)
  call void @llvm.memcpy.p0.p0.i64(ptr align 8 %_16278, ptr align 8 %_6289, i64 32, i1 false)
  %115 = getelementptr inbounds nuw i64, ptr %_16278, i64 0
  %_6288 = load i64, ptr %115, align 8, !noundef !3
  %_13953 = zext i64 %_6285 to i128
  %_13957 = zext i64 %k161 to i128
  %_13958 = zext i64 %_6288 to i128
  %_13954 = mul i128 %_13957, %_13958
  %_13952 = add i128 %_13953, %_13954
  %116 = load i64, ptr %carry52, align 8, !noundef !3
  %_13955 = zext i64 %116 to i128
  %_13951 = add i128 %_13952, %_13955
  %_13956 = lshr i128 %_13951, 64
  %117 = trunc i128 %_13956 to i64
  store i64 %117, ptr %carry52, align 8
  call void @llvm.lifetime.end.p0(ptr %_16278)
  call void @llvm.lifetime.start.p0(ptr %_6292)
  br label %bb4873

panic162:                                         ; preds = %bb2603
; call core::panicking::panic_bounds_check
  call void @_RNvNtCs8OG1GeFZzXY_4core9panicking18panic_bounds_check(i64 noundef %_6286, i64 noundef 4, ptr noalias noundef readonly align 8 captures(address, read_provenance) dereferenceable(24) @alloc_b6d549c2b3ce344d3ee993619e732d16) #28
  unreachable

bb4873:                                           ; preds = %bb2604
  %118 = getelementptr inbounds i8, ptr %_6292, i64 8
  store i64 3, ptr %118, align 8
  store i64 1, ptr %_6292, align 8
  %119 = getelementptr inbounds i8, ptr %_6292, i64 8
  %120 = load i64, ptr %119, align 8, !noundef !3
  store i64 %120, ptr %total_iters53, align 8
  br label %bb4874

bb4874:                                           ; preds = %bb4872, %bb4873
  call void @llvm.lifetime.end.p0(ptr %_6292)
  %_6294 = load i64, ptr %total_iters53, align 8, !noundef !3
  %num_loops163 = udiv i64 %_6294, 12
  %121 = load i64, ptr %total_iters53, align 8, !noundef !3
  %remainder164 = urem i64 %121, 12
  store i64 0, ptr %iter109, align 8
  br label %bb2606

bb4872:                                           ; No predecessors!
  store i64 0, ptr %total_iters53, align 8
  br label %bb4874

bb2606:                                           ; preds = %bb2702, %bb4874
  call void @llvm.lifetime.start.p0(ptr %_6296)
  %_13964 = load i64, ptr %iter109, align 8, !noundef !3
  %_13961 = icmp ult i64 %_13964, %num_loops163
  br i1 %_13961, label %bb4875, label %bb4876

bb4876:                                           ; preds = %bb2606
  call void @llvm.lifetime.end.p0(ptr %_6296)
  call void @llvm.lifetime.start.p0(ptr %j55)
  %_6529 = mul i64 %num_loops163, 12
  %122 = add i64 1, %_6529
  store i64 %122, ptr %j55, align 8
  %_6531 = load i64, ptr %j55, align 8, !noundef !3
  %_6530 = icmp ult i64 %_6531, 4
  br i1 %_6530, label %bb2703, label %bb2704

bb4875:                                           ; preds = %bb2606
  %_13962 = load i64, ptr %iter109, align 8, !noundef !3
  %123 = add nuw i64 %_13962, 1
  store i64 %123, ptr %iter109, align 8
  %124 = getelementptr inbounds i8, ptr %_6296, i64 8
  store i64 %_13962, ptr %124, align 8
  store i64 1, ptr %_6296, align 8
  %125 = getelementptr inbounds i8, ptr %_6296, i64 8
  %j992 = load i64, ptr %125, align 8, !noundef !3
  call void @llvm.lifetime.start.p0(ptr %j54)
  %_6299 = mul i64 %j992, 12
  %126 = add i64 1, %_6299
  store i64 %126, ptr %j54, align 8
  %_6301 = load i64, ptr %j54, align 8, !noundef !3
  %_6300 = icmp ult i64 %_6301, 4
  br i1 %_6300, label %bb2607, label %bb2613

bb2704:                                           ; preds = %bb4876
  br label %bb2710

bb2703:                                           ; preds = %bb4876
  %_6536 = load i64, ptr %j55, align 8, !noundef !3
  %_6537 = load i64, ptr %i47, align 8, !noundef !3
  %_6535 = add i64 %_6536, %_6537
  %_6534 = urem i64 %_6535, 4
  %_6539 = icmp ult i64 %_6534, 4
  br i1 %_6539, label %bb2706, label %panic165

bb2710:                                           ; preds = %bb2709, %bb2704
  %127 = load i64, ptr %j55, align 8, !noundef !3
  %128 = add i64 %127, 1
  store i64 %128, ptr %j55, align 8
  %_6550 = load i64, ptr %j55, align 8, !noundef !3
  %_6549 = icmp ult i64 %_6550, 4
  br i1 %_6549, label %bb2711, label %bb2717

bb2706:                                           ; preds = %bb2703
  %129 = getelementptr inbounds nuw i64, ptr %r, i64 %_6534
  %_6533 = load i64, ptr %129, align 8, !noundef !3
  call void @llvm.lifetime.start.p0(ptr %_16291)
  call void @llvm.memcpy.p0.p0.i64(ptr align 8 %_6541, ptr align 8 @alloc_4ac3c5d41a46e3ab32675db08dd7fc71, i64 32, i1 false)
  call void @llvm.memcpy.p0.p0.i64(ptr align 8 %_16291, ptr align 8 %_6541, i64 32, i1 false)
  %_6542 = load i64, ptr %j55, align 8, !noundef !3
  %_6543 = icmp ult i64 %_6542, 4
  br i1 %_6543, label %bb2707, label %panic166

panic165:                                         ; preds = %bb2703
; call core::panicking::panic_bounds_check
  call void @_RNvNtCs8OG1GeFZzXY_4core9panicking18panic_bounds_check(i64 noundef %_6534, i64 noundef 4, ptr noalias noundef readonly align 8 captures(address, read_provenance) dereferenceable(24) @alloc_318a8e9150e07c5cbdd12b81bfa85a33) #28
  unreachable

bb2707:                                           ; preds = %bb2706
  %130 = getelementptr inbounds nuw i64, ptr %_16291, i64 %_6542
  %_6540 = load i64, ptr %130, align 8, !noundef !3
  %_14051 = zext i64 %_6533 to i128
  %_14055 = zext i64 %_6540 to i128
  %_14052 = mul i128 %_13957, %_14055
  %_14050 = add i128 %_14051, %_14052
  %131 = load i64, ptr %carry52, align 8, !noundef !3
  %_14053 = zext i64 %131 to i128
  %_14049 = add i128 %_14050, %_14053
  %_14054 = lshr i128 %_14049, 64
  %132 = trunc i128 %_14054 to i64
  store i64 %132, ptr %carry52, align 8
  %_6532 = trunc i128 %_14049 to i64
  %_6546 = load i64, ptr %j55, align 8, !noundef !3
  %_6547 = load i64, ptr %i47, align 8, !noundef !3
  %_6545 = add i64 %_6546, %_6547
  %_6544 = urem i64 %_6545, 4
  %_6548 = icmp ult i64 %_6544, 4
  br i1 %_6548, label %bb2709, label %panic167

panic166:                                         ; preds = %bb2706
; call core::panicking::panic_bounds_check
  call void @_RNvNtCs8OG1GeFZzXY_4core9panicking18panic_bounds_check(i64 noundef %_6542, i64 noundef 4, ptr noalias noundef readonly align 8 captures(address, read_provenance) dereferenceable(24) @alloc_41d98e10d851b9e3632a1b50dd5ef0a8) #28
  unreachable

bb2709:                                           ; preds = %bb2707
  %133 = getelementptr inbounds nuw i64, ptr %r, i64 %_6544
  store i64 %_6532, ptr %133, align 8
  call void @llvm.lifetime.end.p0(ptr %_16291)
  br label %bb2710

panic167:                                         ; preds = %bb2707
; call core::panicking::panic_bounds_check
  call void @_RNvNtCs8OG1GeFZzXY_4core9panicking18panic_bounds_check(i64 noundef %_6544, i64 noundef 4, ptr noalias noundef readonly align 8 captures(address, read_provenance) dereferenceable(24) @alloc_3736e7aeed652b81b744fa79f14aba19) #28
  unreachable

bb2717:                                           ; preds = %bb2710
  br label %bb2718

bb2711:                                           ; preds = %bb2710
  %_6555 = load i64, ptr %j55, align 8, !noundef !3
  %_6556 = load i64, ptr %i47, align 8, !noundef !3
  %_6554 = add i64 %_6555, %_6556
  %_6553 = urem i64 %_6554, 4
  %_6558 = icmp ult i64 %_6553, 4
  br i1 %_6558, label %bb2713, label %panic168

bb2718:                                           ; preds = %bb2716, %bb2717
  %134 = load i64, ptr %j55, align 8, !noundef !3
  %135 = add i64 %134, 1
  store i64 %135, ptr %j55, align 8
  %_6569 = load i64, ptr %j55, align 8, !noundef !3
  %_6568 = icmp ult i64 %_6569, 4
  br i1 %_6568, label %bb2719, label %bb2725

bb2713:                                           ; preds = %bb2711
  %136 = getelementptr inbounds nuw i64, ptr %r, i64 %_6553
  %_6552 = load i64, ptr %136, align 8, !noundef !3
  call void @llvm.lifetime.start.p0(ptr %_16292)
  call void @llvm.memcpy.p0.p0.i64(ptr align 8 %_6560, ptr align 8 @alloc_4ac3c5d41a46e3ab32675db08dd7fc71, i64 32, i1 false)
  call void @llvm.memcpy.p0.p0.i64(ptr align 8 %_16292, ptr align 8 %_6560, i64 32, i1 false)
  %_6561 = load i64, ptr %j55, align 8, !noundef !3
  %_6562 = icmp ult i64 %_6561, 4
  br i1 %_6562, label %bb2714, label %panic169

panic168:                                         ; preds = %bb2711
; call core::panicking::panic_bounds_check
  call void @_RNvNtCs8OG1GeFZzXY_4core9panicking18panic_bounds_check(i64 noundef %_6553, i64 noundef 4, ptr noalias noundef readonly align 8 captures(address, read_provenance) dereferenceable(24) @alloc_318a8e9150e07c5cbdd12b81bfa85a33) #28
  unreachable

bb2714:                                           ; preds = %bb2713
  %137 = getelementptr inbounds nuw i64, ptr %_16292, i64 %_6561
  %_6559 = load i64, ptr %137, align 8, !noundef !3
  %_14058 = zext i64 %_6552 to i128
  %_14062 = zext i64 %_6559 to i128
  %_14059 = mul i128 %_13957, %_14062
  %_14057 = add i128 %_14058, %_14059
  %138 = load i64, ptr %carry52, align 8, !noundef !3
  %_14060 = zext i64 %138 to i128
  %_14056 = add i128 %_14057, %_14060
  %_14061 = lshr i128 %_14056, 64
  %139 = trunc i128 %_14061 to i64
  store i64 %139, ptr %carry52, align 8
  %_6551 = trunc i128 %_14056 to i64
  %_6565 = load i64, ptr %j55, align 8, !noundef !3
  %_6566 = load i64, ptr %i47, align 8, !noundef !3
  %_6564 = add i64 %_6565, %_6566
  %_6563 = urem i64 %_6564, 4
  %_6567 = icmp ult i64 %_6563, 4
  br i1 %_6567, label %bb2716, label %panic170

panic169:                                         ; preds = %bb2713
; call core::panicking::panic_bounds_check
  call void @_RNvNtCs8OG1GeFZzXY_4core9panicking18panic_bounds_check(i64 noundef %_6561, i64 noundef 4, ptr noalias noundef readonly align 8 captures(address, read_provenance) dereferenceable(24) @alloc_41d98e10d851b9e3632a1b50dd5ef0a8) #28
  unreachable

bb2716:                                           ; preds = %bb2714
  %140 = getelementptr inbounds nuw i64, ptr %r, i64 %_6563
  store i64 %_6551, ptr %140, align 8
  call void @llvm.lifetime.end.p0(ptr %_16292)
  br label %bb2718

panic170:                                         ; preds = %bb2714
; call core::panicking::panic_bounds_check
  call void @_RNvNtCs8OG1GeFZzXY_4core9panicking18panic_bounds_check(i64 noundef %_6563, i64 noundef 4, ptr noalias noundef readonly align 8 captures(address, read_provenance) dereferenceable(24) @alloc_3736e7aeed652b81b744fa79f14aba19) #28
  unreachable

bb2725:                                           ; preds = %bb2718
  br label %bb2726

bb2719:                                           ; preds = %bb2718
  %_6574 = load i64, ptr %j55, align 8, !noundef !3
  %_6575 = load i64, ptr %i47, align 8, !noundef !3
  %_6573 = add i64 %_6574, %_6575
  %_6572 = urem i64 %_6573, 4
  %_6577 = icmp ult i64 %_6572, 4
  br i1 %_6577, label %bb2721, label %panic171

bb2726:                                           ; preds = %bb2724, %bb2725
  %141 = load i64, ptr %j55, align 8, !noundef !3
  %142 = add i64 %141, 1
  store i64 %142, ptr %j55, align 8
  %_6588 = load i64, ptr %j55, align 8, !noundef !3
  %_6587 = icmp ult i64 %_6588, 4
  br i1 %_6587, label %bb2727, label %bb2733

bb2721:                                           ; preds = %bb2719
  %143 = getelementptr inbounds nuw i64, ptr %r, i64 %_6572
  %_6571 = load i64, ptr %143, align 8, !noundef !3
  call void @llvm.lifetime.start.p0(ptr %_16293)
  call void @llvm.memcpy.p0.p0.i64(ptr align 8 %_6579, ptr align 8 @alloc_4ac3c5d41a46e3ab32675db08dd7fc71, i64 32, i1 false)
  call void @llvm.memcpy.p0.p0.i64(ptr align 8 %_16293, ptr align 8 %_6579, i64 32, i1 false)
  %_6580 = load i64, ptr %j55, align 8, !noundef !3
  %_6581 = icmp ult i64 %_6580, 4
  br i1 %_6581, label %bb2722, label %panic172

panic171:                                         ; preds = %bb2719
; call core::panicking::panic_bounds_check
  call void @_RNvNtCs8OG1GeFZzXY_4core9panicking18panic_bounds_check(i64 noundef %_6572, i64 noundef 4, ptr noalias noundef readonly align 8 captures(address, read_provenance) dereferenceable(24) @alloc_318a8e9150e07c5cbdd12b81bfa85a33) #28
  unreachable

bb2722:                                           ; preds = %bb2721
  %144 = getelementptr inbounds nuw i64, ptr %_16293, i64 %_6580
  %_6578 = load i64, ptr %144, align 8, !noundef !3
  %_14065 = zext i64 %_6571 to i128
  %_14069 = zext i64 %_6578 to i128
  %_14066 = mul i128 %_13957, %_14069
  %_14064 = add i128 %_14065, %_14066
  %145 = load i64, ptr %carry52, align 8, !noundef !3
  %_14067 = zext i64 %145 to i128
  %_14063 = add i128 %_14064, %_14067
  %_14068 = lshr i128 %_14063, 64
  %146 = trunc i128 %_14068 to i64
  store i64 %146, ptr %carry52, align 8
  %_6570 = trunc i128 %_14063 to i64
  %_6584 = load i64, ptr %j55, align 8, !noundef !3
  %_6585 = load i64, ptr %i47, align 8, !noundef !3
  %_6583 = add i64 %_6584, %_6585
  %_6582 = urem i64 %_6583, 4
  %_6586 = icmp ult i64 %_6582, 4
  br i1 %_6586, label %bb2724, label %panic173

panic172:                                         ; preds = %bb2721
; call core::panicking::panic_bounds_check
  call void @_RNvNtCs8OG1GeFZzXY_4core9panicking18panic_bounds_check(i64 noundef %_6580, i64 noundef 4, ptr noalias noundef readonly align 8 captures(address, read_provenance) dereferenceable(24) @alloc_41d98e10d851b9e3632a1b50dd5ef0a8) #28
  unreachable

bb2724:                                           ; preds = %bb2722
  %147 = getelementptr inbounds nuw i64, ptr %r, i64 %_6582
  store i64 %_6570, ptr %147, align 8
  call void @llvm.lifetime.end.p0(ptr %_16293)
  br label %bb2726

panic173:                                         ; preds = %bb2722
; call core::panicking::panic_bounds_check
  call void @_RNvNtCs8OG1GeFZzXY_4core9panicking18panic_bounds_check(i64 noundef %_6582, i64 noundef 4, ptr noalias noundef readonly align 8 captures(address, read_provenance) dereferenceable(24) @alloc_3736e7aeed652b81b744fa79f14aba19) #28
  unreachable

bb2733:                                           ; preds = %bb2726
  br label %bb2734

bb2727:                                           ; preds = %bb2726
  %_6593 = load i64, ptr %j55, align 8, !noundef !3
  %_6594 = load i64, ptr %i47, align 8, !noundef !3
  %_6592 = add i64 %_6593, %_6594
  %_6591 = urem i64 %_6592, 4
  %_6596 = icmp ult i64 %_6591, 4
  br i1 %_6596, label %bb2729, label %panic174

bb2734:                                           ; preds = %bb2732, %bb2733
  %148 = load i64, ptr %j55, align 8, !noundef !3
  %149 = add i64 %148, 1
  store i64 %149, ptr %j55, align 8
  %_6607 = load i64, ptr %j55, align 8, !noundef !3
  %_6606 = icmp ult i64 %_6607, 4
  br i1 %_6606, label %bb2735, label %bb2741

bb2729:                                           ; preds = %bb2727
  %150 = getelementptr inbounds nuw i64, ptr %r, i64 %_6591
  %_6590 = load i64, ptr %150, align 8, !noundef !3
  call void @llvm.lifetime.start.p0(ptr %_16294)
  call void @llvm.memcpy.p0.p0.i64(ptr align 8 %_6598, ptr align 8 @alloc_4ac3c5d41a46e3ab32675db08dd7fc71, i64 32, i1 false)
  call void @llvm.memcpy.p0.p0.i64(ptr align 8 %_16294, ptr align 8 %_6598, i64 32, i1 false)
  %_6599 = load i64, ptr %j55, align 8, !noundef !3
  %_6600 = icmp ult i64 %_6599, 4
  br i1 %_6600, label %bb2730, label %panic175

panic174:                                         ; preds = %bb2727
; call core::panicking::panic_bounds_check
  call void @_RNvNtCs8OG1GeFZzXY_4core9panicking18panic_bounds_check(i64 noundef %_6591, i64 noundef 4, ptr noalias noundef readonly align 8 captures(address, read_provenance) dereferenceable(24) @alloc_318a8e9150e07c5cbdd12b81bfa85a33) #28
  unreachable

bb2730:                                           ; preds = %bb2729
  %151 = getelementptr inbounds nuw i64, ptr %_16294, i64 %_6599
  %_6597 = load i64, ptr %151, align 8, !noundef !3
  %_14072 = zext i64 %_6590 to i128
  %_14076 = zext i64 %_6597 to i128
  %_14073 = mul i128 %_13957, %_14076
  %_14071 = add i128 %_14072, %_14073
  %152 = load i64, ptr %carry52, align 8, !noundef !3
  %_14074 = zext i64 %152 to i128
  %_14070 = add i128 %_14071, %_14074
  %_14075 = lshr i128 %_14070, 64
  %153 = trunc i128 %_14075 to i64
  store i64 %153, ptr %carry52, align 8
  %_6589 = trunc i128 %_14070 to i64
  %_6603 = load i64, ptr %j55, align 8, !noundef !3
  %_6604 = load i64, ptr %i47, align 8, !noundef !3
  %_6602 = add i64 %_6603, %_6604
  %_6601 = urem i64 %_6602, 4
  %_6605 = icmp ult i64 %_6601, 4
  br i1 %_6605, label %bb2732, label %panic176

panic175:                                         ; preds = %bb2729
; call core::panicking::panic_bounds_check
  call void @_RNvNtCs8OG1GeFZzXY_4core9panicking18panic_bounds_check(i64 noundef %_6599, i64 noundef 4, ptr noalias noundef readonly align 8 captures(address, read_provenance) dereferenceable(24) @alloc_41d98e10d851b9e3632a1b50dd5ef0a8) #28
  unreachable

bb2732:                                           ; preds = %bb2730
  %154 = getelementptr inbounds nuw i64, ptr %r, i64 %_6601
  store i64 %_6589, ptr %154, align 8
  call void @llvm.lifetime.end.p0(ptr %_16294)
  br label %bb2734

panic176:                                         ; preds = %bb2730
; call core::panicking::panic_bounds_check
  call void @_RNvNtCs8OG1GeFZzXY_4core9panicking18panic_bounds_check(i64 noundef %_6601, i64 noundef 4, ptr noalias noundef readonly align 8 captures(address, read_provenance) dereferenceable(24) @alloc_3736e7aeed652b81b744fa79f14aba19) #28
  unreachable

bb2741:                                           ; preds = %bb2734
  br label %bb2742

bb2735:                                           ; preds = %bb2734
  %_6612 = load i64, ptr %j55, align 8, !noundef !3
  %_6613 = load i64, ptr %i47, align 8, !noundef !3
  %_6611 = add i64 %_6612, %_6613
  %_6610 = urem i64 %_6611, 4
  %_6615 = icmp ult i64 %_6610, 4
  br i1 %_6615, label %bb2737, label %panic177

bb2742:                                           ; preds = %bb2740, %bb2741
  %155 = load i64, ptr %j55, align 8, !noundef !3
  %156 = add i64 %155, 1
  store i64 %156, ptr %j55, align 8
  %_6626 = load i64, ptr %j55, align 8, !noundef !3
  %_6625 = icmp ult i64 %_6626, 4
  br i1 %_6625, label %bb2743, label %bb2749

bb2737:                                           ; preds = %bb2735
  %157 = getelementptr inbounds nuw i64, ptr %r, i64 %_6610
  %_6609 = load i64, ptr %157, align 8, !noundef !3
  call void @llvm.lifetime.start.p0(ptr %_16295)
  call void @llvm.memcpy.p0.p0.i64(ptr align 8 %_6617, ptr align 8 @alloc_4ac3c5d41a46e3ab32675db08dd7fc71, i64 32, i1 false)
  call void @llvm.memcpy.p0.p0.i64(ptr align 8 %_16295, ptr align 8 %_6617, i64 32, i1 false)
  %_6618 = load i64, ptr %j55, align 8, !noundef !3
  %_6619 = icmp ult i64 %_6618, 4
  br i1 %_6619, label %bb2738, label %panic178

panic177:                                         ; preds = %bb2735
; call core::panicking::panic_bounds_check
  call void @_RNvNtCs8OG1GeFZzXY_4core9panicking18panic_bounds_check(i64 noundef %_6610, i64 noundef 4, ptr noalias noundef readonly align 8 captures(address, read_provenance) dereferenceable(24) @alloc_318a8e9150e07c5cbdd12b81bfa85a33) #28
  unreachable

bb2738:                                           ; preds = %bb2737
  %158 = getelementptr inbounds nuw i64, ptr %_16295, i64 %_6618
  %_6616 = load i64, ptr %158, align 8, !noundef !3
  %_14079 = zext i64 %_6609 to i128
  %_14083 = zext i64 %_6616 to i128
  %_14080 = mul i128 %_13957, %_14083
  %_14078 = add i128 %_14079, %_14080
  %159 = load i64, ptr %carry52, align 8, !noundef !3
  %_14081 = zext i64 %159 to i128
  %_14077 = add i128 %_14078, %_14081
  %_14082 = lshr i128 %_14077, 64
  %160 = trunc i128 %_14082 to i64
  store i64 %160, ptr %carry52, align 8
  %_6608 = trunc i128 %_14077 to i64
  %_6622 = load i64, ptr %j55, align 8, !noundef !3
  %_6623 = load i64, ptr %i47, align 8, !noundef !3
  %_6621 = add i64 %_6622, %_6623
  %_6620 = urem i64 %_6621, 4
  %_6624 = icmp ult i64 %_6620, 4
  br i1 %_6624, label %bb2740, label %panic179

panic178:                                         ; preds = %bb2737
; call core::panicking::panic_bounds_check
  call void @_RNvNtCs8OG1GeFZzXY_4core9panicking18panic_bounds_check(i64 noundef %_6618, i64 noundef 4, ptr noalias noundef readonly align 8 captures(address, read_provenance) dereferenceable(24) @alloc_41d98e10d851b9e3632a1b50dd5ef0a8) #28
  unreachable

bb2740:                                           ; preds = %bb2738
  %161 = getelementptr inbounds nuw i64, ptr %r, i64 %_6620
  store i64 %_6608, ptr %161, align 8
  call void @llvm.lifetime.end.p0(ptr %_16295)
  br label %bb2742

panic179:                                         ; preds = %bb2738
; call core::panicking::panic_bounds_check
  call void @_RNvNtCs8OG1GeFZzXY_4core9panicking18panic_bounds_check(i64 noundef %_6620, i64 noundef 4, ptr noalias noundef readonly align 8 captures(address, read_provenance) dereferenceable(24) @alloc_3736e7aeed652b81b744fa79f14aba19) #28
  unreachable

bb2749:                                           ; preds = %bb2742
  br label %bb2750

bb2743:                                           ; preds = %bb2742
  %_6631 = load i64, ptr %j55, align 8, !noundef !3
  %_6632 = load i64, ptr %i47, align 8, !noundef !3
  %_6630 = add i64 %_6631, %_6632
  %_6629 = urem i64 %_6630, 4
  %_6634 = icmp ult i64 %_6629, 4
  br i1 %_6634, label %bb2745, label %panic180

bb2750:                                           ; preds = %bb2748, %bb2749
  %162 = load i64, ptr %j55, align 8, !noundef !3
  %163 = add i64 %162, 1
  store i64 %163, ptr %j55, align 8
  %_6645 = load i64, ptr %j55, align 8, !noundef !3
  %_6644 = icmp ult i64 %_6645, 4
  br i1 %_6644, label %bb2751, label %bb2757

bb2745:                                           ; preds = %bb2743
  %164 = getelementptr inbounds nuw i64, ptr %r, i64 %_6629
  %_6628 = load i64, ptr %164, align 8, !noundef !3
  call void @llvm.lifetime.start.p0(ptr %_16296)
  call void @llvm.memcpy.p0.p0.i64(ptr align 8 %_6636, ptr align 8 @alloc_4ac3c5d41a46e3ab32675db08dd7fc71, i64 32, i1 false)
  call void @llvm.memcpy.p0.p0.i64(ptr align 8 %_16296, ptr align 8 %_6636, i64 32, i1 false)
  %_6637 = load i64, ptr %j55, align 8, !noundef !3
  %_6638 = icmp ult i64 %_6637, 4
  br i1 %_6638, label %bb2746, label %panic181

panic180:                                         ; preds = %bb2743
; call core::panicking::panic_bounds_check
  call void @_RNvNtCs8OG1GeFZzXY_4core9panicking18panic_bounds_check(i64 noundef %_6629, i64 noundef 4, ptr noalias noundef readonly align 8 captures(address, read_provenance) dereferenceable(24) @alloc_318a8e9150e07c5cbdd12b81bfa85a33) #28
  unreachable

bb2746:                                           ; preds = %bb2745
  %165 = getelementptr inbounds nuw i64, ptr %_16296, i64 %_6637
  %_6635 = load i64, ptr %165, align 8, !noundef !3
  %_14086 = zext i64 %_6628 to i128
  %_14090 = zext i64 %_6635 to i128
  %_14087 = mul i128 %_13957, %_14090
  %_14085 = add i128 %_14086, %_14087
  %166 = load i64, ptr %carry52, align 8, !noundef !3
  %_14088 = zext i64 %166 to i128
  %_14084 = add i128 %_14085, %_14088
  %_14089 = lshr i128 %_14084, 64
  %167 = trunc i128 %_14089 to i64
  store i64 %167, ptr %carry52, align 8
  %_6627 = trunc i128 %_14084 to i64
  %_6641 = load i64, ptr %j55, align 8, !noundef !3
  %_6642 = load i64, ptr %i47, align 8, !noundef !3
  %_6640 = add i64 %_6641, %_6642
  %_6639 = urem i64 %_6640, 4
  %_6643 = icmp ult i64 %_6639, 4
  br i1 %_6643, label %bb2748, label %panic182

panic181:                                         ; preds = %bb2745
; call core::panicking::panic_bounds_check
  call void @_RNvNtCs8OG1GeFZzXY_4core9panicking18panic_bounds_check(i64 noundef %_6637, i64 noundef 4, ptr noalias noundef readonly align 8 captures(address, read_provenance) dereferenceable(24) @alloc_41d98e10d851b9e3632a1b50dd5ef0a8) #28
  unreachable

bb2748:                                           ; preds = %bb2746
  %168 = getelementptr inbounds nuw i64, ptr %r, i64 %_6639
  store i64 %_6627, ptr %168, align 8
  call void @llvm.lifetime.end.p0(ptr %_16296)
  br label %bb2750

panic182:                                         ; preds = %bb2746
; call core::panicking::panic_bounds_check
  call void @_RNvNtCs8OG1GeFZzXY_4core9panicking18panic_bounds_check(i64 noundef %_6639, i64 noundef 4, ptr noalias noundef readonly align 8 captures(address, read_provenance) dereferenceable(24) @alloc_3736e7aeed652b81b744fa79f14aba19) #28
  unreachable

bb2757:                                           ; preds = %bb2750
  br label %bb2758

bb2751:                                           ; preds = %bb2750
  %_6650 = load i64, ptr %j55, align 8, !noundef !3
  %_6651 = load i64, ptr %i47, align 8, !noundef !3
  %_6649 = add i64 %_6650, %_6651
  %_6648 = urem i64 %_6649, 4
  %_6653 = icmp ult i64 %_6648, 4
  br i1 %_6653, label %bb2753, label %panic183

bb2758:                                           ; preds = %bb2756, %bb2757
  %169 = load i64, ptr %j55, align 8, !noundef !3
  %170 = add i64 %169, 1
  store i64 %170, ptr %j55, align 8
  %_6664 = load i64, ptr %j55, align 8, !noundef !3
  %_6663 = icmp ult i64 %_6664, 4
  br i1 %_6663, label %bb2759, label %bb2765

bb2753:                                           ; preds = %bb2751
  %171 = getelementptr inbounds nuw i64, ptr %r, i64 %_6648
  %_6647 = load i64, ptr %171, align 8, !noundef !3
  call void @llvm.lifetime.start.p0(ptr %_16297)
  call void @llvm.memcpy.p0.p0.i64(ptr align 8 %_6655, ptr align 8 @alloc_4ac3c5d41a46e3ab32675db08dd7fc71, i64 32, i1 false)
  call void @llvm.memcpy.p0.p0.i64(ptr align 8 %_16297, ptr align 8 %_6655, i64 32, i1 false)
  %_6656 = load i64, ptr %j55, align 8, !noundef !3
  %_6657 = icmp ult i64 %_6656, 4
  br i1 %_6657, label %bb2754, label %panic184

panic183:                                         ; preds = %bb2751
; call core::panicking::panic_bounds_check
  call void @_RNvNtCs8OG1GeFZzXY_4core9panicking18panic_bounds_check(i64 noundef %_6648, i64 noundef 4, ptr noalias noundef readonly align 8 captures(address, read_provenance) dereferenceable(24) @alloc_318a8e9150e07c5cbdd12b81bfa85a33) #28
  unreachable

bb2754:                                           ; preds = %bb2753
  %172 = getelementptr inbounds nuw i64, ptr %_16297, i64 %_6656
  %_6654 = load i64, ptr %172, align 8, !noundef !3
  %_14093 = zext i64 %_6647 to i128
  %_14097 = zext i64 %_6654 to i128
  %_14094 = mul i128 %_13957, %_14097
  %_14092 = add i128 %_14093, %_14094
  %173 = load i64, ptr %carry52, align 8, !noundef !3
  %_14095 = zext i64 %173 to i128
  %_14091 = add i128 %_14092, %_14095
  %_14096 = lshr i128 %_14091, 64
  %174 = trunc i128 %_14096 to i64
  store i64 %174, ptr %carry52, align 8
  %_6646 = trunc i128 %_14091 to i64
  %_6660 = load i64, ptr %j55, align 8, !noundef !3
  %_6661 = load i64, ptr %i47, align 8, !noundef !3
  %_6659 = add i64 %_6660, %_6661
  %_6658 = urem i64 %_6659, 4
  %_6662 = icmp ult i64 %_6658, 4
  br i1 %_6662, label %bb2756, label %panic185

panic184:                                         ; preds = %bb2753
; call core::panicking::panic_bounds_check
  call void @_RNvNtCs8OG1GeFZzXY_4core9panicking18panic_bounds_check(i64 noundef %_6656, i64 noundef 4, ptr noalias noundef readonly align 8 captures(address, read_provenance) dereferenceable(24) @alloc_41d98e10d851b9e3632a1b50dd5ef0a8) #28
  unreachable

bb2756:                                           ; preds = %bb2754
  %175 = getelementptr inbounds nuw i64, ptr %r, i64 %_6658
  store i64 %_6646, ptr %175, align 8
  call void @llvm.lifetime.end.p0(ptr %_16297)
  br label %bb2758

panic185:                                         ; preds = %bb2754
; call core::panicking::panic_bounds_check
  call void @_RNvNtCs8OG1GeFZzXY_4core9panicking18panic_bounds_check(i64 noundef %_6658, i64 noundef 4, ptr noalias noundef readonly align 8 captures(address, read_provenance) dereferenceable(24) @alloc_3736e7aeed652b81b744fa79f14aba19) #28
  unreachable

bb2765:                                           ; preds = %bb2758
  br label %bb2766

bb2759:                                           ; preds = %bb2758
  %_6669 = load i64, ptr %j55, align 8, !noundef !3
  %_6670 = load i64, ptr %i47, align 8, !noundef !3
  %_6668 = add i64 %_6669, %_6670
  %_6667 = urem i64 %_6668, 4
  %_6672 = icmp ult i64 %_6667, 4
  br i1 %_6672, label %bb2761, label %panic186

bb2766:                                           ; preds = %bb2764, %bb2765
  %176 = load i64, ptr %j55, align 8, !noundef !3
  %177 = add i64 %176, 1
  store i64 %177, ptr %j55, align 8
  %_6683 = load i64, ptr %j55, align 8, !noundef !3
  %_6682 = icmp ult i64 %_6683, 4
  br i1 %_6682, label %bb2767, label %bb2773

bb2761:                                           ; preds = %bb2759
  %178 = getelementptr inbounds nuw i64, ptr %r, i64 %_6667
  %_6666 = load i64, ptr %178, align 8, !noundef !3
  call void @llvm.lifetime.start.p0(ptr %_16298)
  call void @llvm.memcpy.p0.p0.i64(ptr align 8 %_6674, ptr align 8 @alloc_4ac3c5d41a46e3ab32675db08dd7fc71, i64 32, i1 false)
  call void @llvm.memcpy.p0.p0.i64(ptr align 8 %_16298, ptr align 8 %_6674, i64 32, i1 false)
  %_6675 = load i64, ptr %j55, align 8, !noundef !3
  %_6676 = icmp ult i64 %_6675, 4
  br i1 %_6676, label %bb2762, label %panic187

panic186:                                         ; preds = %bb2759
; call core::panicking::panic_bounds_check
  call void @_RNvNtCs8OG1GeFZzXY_4core9panicking18panic_bounds_check(i64 noundef %_6667, i64 noundef 4, ptr noalias noundef readonly align 8 captures(address, read_provenance) dereferenceable(24) @alloc_318a8e9150e07c5cbdd12b81bfa85a33) #28
  unreachable

bb2762:                                           ; preds = %bb2761
  %179 = getelementptr inbounds nuw i64, ptr %_16298, i64 %_6675
  %_6673 = load i64, ptr %179, align 8, !noundef !3
  %_14100 = zext i64 %_6666 to i128
  %_14104 = zext i64 %_6673 to i128
  %_14101 = mul i128 %_13957, %_14104
  %_14099 = add i128 %_14100, %_14101
  %180 = load i64, ptr %carry52, align 8, !noundef !3
  %_14102 = zext i64 %180 to i128
  %_14098 = add i128 %_14099, %_14102
  %_14103 = lshr i128 %_14098, 64
  %181 = trunc i128 %_14103 to i64
  store i64 %181, ptr %carry52, align 8
  %_6665 = trunc i128 %_14098 to i64
  %_6679 = load i64, ptr %j55, align 8, !noundef !3
  %_6680 = load i64, ptr %i47, align 8, !noundef !3
  %_6678 = add i64 %_6679, %_6680
  %_6677 = urem i64 %_6678, 4
  %_6681 = icmp ult i64 %_6677, 4
  br i1 %_6681, label %bb2764, label %panic188

panic187:                                         ; preds = %bb2761
; call core::panicking::panic_bounds_check
  call void @_RNvNtCs8OG1GeFZzXY_4core9panicking18panic_bounds_check(i64 noundef %_6675, i64 noundef 4, ptr noalias noundef readonly align 8 captures(address, read_provenance) dereferenceable(24) @alloc_41d98e10d851b9e3632a1b50dd5ef0a8) #28
  unreachable

bb2764:                                           ; preds = %bb2762
  %182 = getelementptr inbounds nuw i64, ptr %r, i64 %_6677
  store i64 %_6665, ptr %182, align 8
  call void @llvm.lifetime.end.p0(ptr %_16298)
  br label %bb2766

panic188:                                         ; preds = %bb2762
; call core::panicking::panic_bounds_check
  call void @_RNvNtCs8OG1GeFZzXY_4core9panicking18panic_bounds_check(i64 noundef %_6677, i64 noundef 4, ptr noalias noundef readonly align 8 captures(address, read_provenance) dereferenceable(24) @alloc_3736e7aeed652b81b744fa79f14aba19) #28
  unreachable

bb2773:                                           ; preds = %bb2766
  br label %bb2774

bb2767:                                           ; preds = %bb2766
  %_6688 = load i64, ptr %j55, align 8, !noundef !3
  %_6689 = load i64, ptr %i47, align 8, !noundef !3
  %_6687 = add i64 %_6688, %_6689
  %_6686 = urem i64 %_6687, 4
  %_6691 = icmp ult i64 %_6686, 4
  br i1 %_6691, label %bb2769, label %panic189

bb2774:                                           ; preds = %bb2772, %bb2773
  %183 = load i64, ptr %j55, align 8, !noundef !3
  %184 = add i64 %183, 1
  store i64 %184, ptr %j55, align 8
  %_6702 = load i64, ptr %j55, align 8, !noundef !3
  %_6701 = icmp ult i64 %_6702, 4
  br i1 %_6701, label %bb2775, label %bb2781

bb2769:                                           ; preds = %bb2767
  %185 = getelementptr inbounds nuw i64, ptr %r, i64 %_6686
  %_6685 = load i64, ptr %185, align 8, !noundef !3
  call void @llvm.lifetime.start.p0(ptr %_16299)
  call void @llvm.memcpy.p0.p0.i64(ptr align 8 %_6693, ptr align 8 @alloc_4ac3c5d41a46e3ab32675db08dd7fc71, i64 32, i1 false)
  call void @llvm.memcpy.p0.p0.i64(ptr align 8 %_16299, ptr align 8 %_6693, i64 32, i1 false)
  %_6694 = load i64, ptr %j55, align 8, !noundef !3
  %_6695 = icmp ult i64 %_6694, 4
  br i1 %_6695, label %bb2770, label %panic190

panic189:                                         ; preds = %bb2767
; call core::panicking::panic_bounds_check
  call void @_RNvNtCs8OG1GeFZzXY_4core9panicking18panic_bounds_check(i64 noundef %_6686, i64 noundef 4, ptr noalias noundef readonly align 8 captures(address, read_provenance) dereferenceable(24) @alloc_318a8e9150e07c5cbdd12b81bfa85a33) #28
  unreachable

bb2770:                                           ; preds = %bb2769
  %186 = getelementptr inbounds nuw i64, ptr %_16299, i64 %_6694
  %_6692 = load i64, ptr %186, align 8, !noundef !3
  %_14107 = zext i64 %_6685 to i128
  %_14111 = zext i64 %_6692 to i128
  %_14108 = mul i128 %_13957, %_14111
  %_14106 = add i128 %_14107, %_14108
  %187 = load i64, ptr %carry52, align 8, !noundef !3
  %_14109 = zext i64 %187 to i128
  %_14105 = add i128 %_14106, %_14109
  %_14110 = lshr i128 %_14105, 64
  %188 = trunc i128 %_14110 to i64
  store i64 %188, ptr %carry52, align 8
  %_6684 = trunc i128 %_14105 to i64
  %_6698 = load i64, ptr %j55, align 8, !noundef !3
  %_6699 = load i64, ptr %i47, align 8, !noundef !3
  %_6697 = add i64 %_6698, %_6699
  %_6696 = urem i64 %_6697, 4
  %_6700 = icmp ult i64 %_6696, 4
  br i1 %_6700, label %bb2772, label %panic191

panic190:                                         ; preds = %bb2769
; call core::panicking::panic_bounds_check
  call void @_RNvNtCs8OG1GeFZzXY_4core9panicking18panic_bounds_check(i64 noundef %_6694, i64 noundef 4, ptr noalias noundef readonly align 8 captures(address, read_provenance) dereferenceable(24) @alloc_41d98e10d851b9e3632a1b50dd5ef0a8) #28
  unreachable

bb2772:                                           ; preds = %bb2770
  %189 = getelementptr inbounds nuw i64, ptr %r, i64 %_6696
  store i64 %_6684, ptr %189, align 8
  call void @llvm.lifetime.end.p0(ptr %_16299)
  br label %bb2774

panic191:                                         ; preds = %bb2770
; call core::panicking::panic_bounds_check
  call void @_RNvNtCs8OG1GeFZzXY_4core9panicking18panic_bounds_check(i64 noundef %_6696, i64 noundef 4, ptr noalias noundef readonly align 8 captures(address, read_provenance) dereferenceable(24) @alloc_3736e7aeed652b81b744fa79f14aba19) #28
  unreachable

bb2781:                                           ; preds = %bb2774
  br label %bb2782

bb2775:                                           ; preds = %bb2774
  %_6707 = load i64, ptr %j55, align 8, !noundef !3
  %_6708 = load i64, ptr %i47, align 8, !noundef !3
  %_6706 = add i64 %_6707, %_6708
  %_6705 = urem i64 %_6706, 4
  %_6710 = icmp ult i64 %_6705, 4
  br i1 %_6710, label %bb2777, label %panic192

bb2782:                                           ; preds = %bb2780, %bb2781
  %190 = load i64, ptr %j55, align 8, !noundef !3
  %191 = add i64 %190, 1
  store i64 %191, ptr %j55, align 8
  %_6721 = load i64, ptr %j55, align 8, !noundef !3
  %_6720 = icmp ult i64 %_6721, 4
  br i1 %_6720, label %bb2783, label %bb2789

bb2777:                                           ; preds = %bb2775
  %192 = getelementptr inbounds nuw i64, ptr %r, i64 %_6705
  %_6704 = load i64, ptr %192, align 8, !noundef !3
  call void @llvm.lifetime.start.p0(ptr %_16300)
  call void @llvm.memcpy.p0.p0.i64(ptr align 8 %_6712, ptr align 8 @alloc_4ac3c5d41a46e3ab32675db08dd7fc71, i64 32, i1 false)
  call void @llvm.memcpy.p0.p0.i64(ptr align 8 %_16300, ptr align 8 %_6712, i64 32, i1 false)
  %_6713 = load i64, ptr %j55, align 8, !noundef !3
  %_6714 = icmp ult i64 %_6713, 4
  br i1 %_6714, label %bb2778, label %panic193

panic192:                                         ; preds = %bb2775
; call core::panicking::panic_bounds_check
  call void @_RNvNtCs8OG1GeFZzXY_4core9panicking18panic_bounds_check(i64 noundef %_6705, i64 noundef 4, ptr noalias noundef readonly align 8 captures(address, read_provenance) dereferenceable(24) @alloc_318a8e9150e07c5cbdd12b81bfa85a33) #28
  unreachable

bb2778:                                           ; preds = %bb2777
  %193 = getelementptr inbounds nuw i64, ptr %_16300, i64 %_6713
  %_6711 = load i64, ptr %193, align 8, !noundef !3
  %_14114 = zext i64 %_6704 to i128
  %_14118 = zext i64 %_6711 to i128
  %_14115 = mul i128 %_13957, %_14118
  %_14113 = add i128 %_14114, %_14115
  %194 = load i64, ptr %carry52, align 8, !noundef !3
  %_14116 = zext i64 %194 to i128
  %_14112 = add i128 %_14113, %_14116
  %_14117 = lshr i128 %_14112, 64
  %195 = trunc i128 %_14117 to i64
  store i64 %195, ptr %carry52, align 8
  %_6703 = trunc i128 %_14112 to i64
  %_6717 = load i64, ptr %j55, align 8, !noundef !3
  %_6718 = load i64, ptr %i47, align 8, !noundef !3
  %_6716 = add i64 %_6717, %_6718
  %_6715 = urem i64 %_6716, 4
  %_6719 = icmp ult i64 %_6715, 4
  br i1 %_6719, label %bb2780, label %panic194

panic193:                                         ; preds = %bb2777
; call core::panicking::panic_bounds_check
  call void @_RNvNtCs8OG1GeFZzXY_4core9panicking18panic_bounds_check(i64 noundef %_6713, i64 noundef 4, ptr noalias noundef readonly align 8 captures(address, read_provenance) dereferenceable(24) @alloc_41d98e10d851b9e3632a1b50dd5ef0a8) #28
  unreachable

bb2780:                                           ; preds = %bb2778
  %196 = getelementptr inbounds nuw i64, ptr %r, i64 %_6715
  store i64 %_6703, ptr %196, align 8
  call void @llvm.lifetime.end.p0(ptr %_16300)
  br label %bb2782

panic194:                                         ; preds = %bb2778
; call core::panicking::panic_bounds_check
  call void @_RNvNtCs8OG1GeFZzXY_4core9panicking18panic_bounds_check(i64 noundef %_6715, i64 noundef 4, ptr noalias noundef readonly align 8 captures(address, read_provenance) dereferenceable(24) @alloc_3736e7aeed652b81b744fa79f14aba19) #28
  unreachable

bb2789:                                           ; preds = %bb2782
  br label %bb2790

bb2783:                                           ; preds = %bb2782
  %_6726 = load i64, ptr %j55, align 8, !noundef !3
  %_6727 = load i64, ptr %i47, align 8, !noundef !3
  %_6725 = add i64 %_6726, %_6727
  %_6724 = urem i64 %_6725, 4
  %_6729 = icmp ult i64 %_6724, 4
  br i1 %_6729, label %bb2785, label %panic195

bb2790:                                           ; preds = %bb2788, %bb2789
  %197 = load i64, ptr %j55, align 8, !noundef !3
  %198 = add i64 %197, 1
  store i64 %198, ptr %j55, align 8
  %_6740 = load i64, ptr %j55, align 8, !noundef !3
  %_6739 = icmp ult i64 %_6740, 4
  br i1 %_6739, label %bb2791, label %bb2797

bb2785:                                           ; preds = %bb2783
  %199 = getelementptr inbounds nuw i64, ptr %r, i64 %_6724
  %_6723 = load i64, ptr %199, align 8, !noundef !3
  call void @llvm.lifetime.start.p0(ptr %_16301)
  call void @llvm.memcpy.p0.p0.i64(ptr align 8 %_6731, ptr align 8 @alloc_4ac3c5d41a46e3ab32675db08dd7fc71, i64 32, i1 false)
  call void @llvm.memcpy.p0.p0.i64(ptr align 8 %_16301, ptr align 8 %_6731, i64 32, i1 false)
  %_6732 = load i64, ptr %j55, align 8, !noundef !3
  %_6733 = icmp ult i64 %_6732, 4
  br i1 %_6733, label %bb2786, label %panic196

panic195:                                         ; preds = %bb2783
; call core::panicking::panic_bounds_check
  call void @_RNvNtCs8OG1GeFZzXY_4core9panicking18panic_bounds_check(i64 noundef %_6724, i64 noundef 4, ptr noalias noundef readonly align 8 captures(address, read_provenance) dereferenceable(24) @alloc_318a8e9150e07c5cbdd12b81bfa85a33) #28
  unreachable

bb2786:                                           ; preds = %bb2785
  %200 = getelementptr inbounds nuw i64, ptr %_16301, i64 %_6732
  %_6730 = load i64, ptr %200, align 8, !noundef !3
  %_14121 = zext i64 %_6723 to i128
  %_14125 = zext i64 %_6730 to i128
  %_14122 = mul i128 %_13957, %_14125
  %_14120 = add i128 %_14121, %_14122
  %201 = load i64, ptr %carry52, align 8, !noundef !3
  %_14123 = zext i64 %201 to i128
  %_14119 = add i128 %_14120, %_14123
  %_14124 = lshr i128 %_14119, 64
  %202 = trunc i128 %_14124 to i64
  store i64 %202, ptr %carry52, align 8
  %_6722 = trunc i128 %_14119 to i64
  %_6736 = load i64, ptr %j55, align 8, !noundef !3
  %_6737 = load i64, ptr %i47, align 8, !noundef !3
  %_6735 = add i64 %_6736, %_6737
  %_6734 = urem i64 %_6735, 4
  %_6738 = icmp ult i64 %_6734, 4
  br i1 %_6738, label %bb2788, label %panic197

panic196:                                         ; preds = %bb2785
; call core::panicking::panic_bounds_check
  call void @_RNvNtCs8OG1GeFZzXY_4core9panicking18panic_bounds_check(i64 noundef %_6732, i64 noundef 4, ptr noalias noundef readonly align 8 captures(address, read_provenance) dereferenceable(24) @alloc_41d98e10d851b9e3632a1b50dd5ef0a8) #28
  unreachable

bb2788:                                           ; preds = %bb2786
  %203 = getelementptr inbounds nuw i64, ptr %r, i64 %_6734
  store i64 %_6722, ptr %203, align 8
  call void @llvm.lifetime.end.p0(ptr %_16301)
  br label %bb2790

panic197:                                         ; preds = %bb2786
; call core::panicking::panic_bounds_check
  call void @_RNvNtCs8OG1GeFZzXY_4core9panicking18panic_bounds_check(i64 noundef %_6734, i64 noundef 4, ptr noalias noundef readonly align 8 captures(address, read_provenance) dereferenceable(24) @alloc_3736e7aeed652b81b744fa79f14aba19) #28
  unreachable

bb2797:                                           ; preds = %bb2790
  br label %bb2798

bb2791:                                           ; preds = %bb2790
  %_6745 = load i64, ptr %j55, align 8, !noundef !3
  %_6746 = load i64, ptr %i47, align 8, !noundef !3
  %_6744 = add i64 %_6745, %_6746
  %_6743 = urem i64 %_6744, 4
  %_6748 = icmp ult i64 %_6743, 4
  br i1 %_6748, label %bb2793, label %panic198

bb2798:                                           ; preds = %bb2796, %bb2797
  %204 = load i64, ptr %j55, align 8, !noundef !3
  %205 = add i64 %204, 1
  store i64 %205, ptr %j55, align 8
  call void @llvm.lifetime.end.p0(ptr %j55)
  %_6758 = load i64, ptr %i47, align 8, !noundef !3
  %_6759 = icmp ult i64 %_6758, 4
  br i1 %_6759, label %bb2799, label %panic201

bb2793:                                           ; preds = %bb2791
  %206 = getelementptr inbounds nuw i64, ptr %r, i64 %_6743
  %_6742 = load i64, ptr %206, align 8, !noundef !3
  call void @llvm.lifetime.start.p0(ptr %_16302)
  call void @llvm.memcpy.p0.p0.i64(ptr align 8 %_6750, ptr align 8 @alloc_4ac3c5d41a46e3ab32675db08dd7fc71, i64 32, i1 false)
  call void @llvm.memcpy.p0.p0.i64(ptr align 8 %_16302, ptr align 8 %_6750, i64 32, i1 false)
  %_6751 = load i64, ptr %j55, align 8, !noundef !3
  %_6752 = icmp ult i64 %_6751, 4
  br i1 %_6752, label %bb2794, label %panic199

panic198:                                         ; preds = %bb2791
; call core::panicking::panic_bounds_check
  call void @_RNvNtCs8OG1GeFZzXY_4core9panicking18panic_bounds_check(i64 noundef %_6743, i64 noundef 4, ptr noalias noundef readonly align 8 captures(address, read_provenance) dereferenceable(24) @alloc_318a8e9150e07c5cbdd12b81bfa85a33) #28
  unreachable

bb2794:                                           ; preds = %bb2793
  %207 = getelementptr inbounds nuw i64, ptr %_16302, i64 %_6751
  %_6749 = load i64, ptr %207, align 8, !noundef !3
  %_14128 = zext i64 %_6742 to i128
  %_14132 = zext i64 %_6749 to i128
  %_14129 = mul i128 %_13957, %_14132
  %_14127 = add i128 %_14128, %_14129
  %208 = load i64, ptr %carry52, align 8, !noundef !3
  %_14130 = zext i64 %208 to i128
  %_14126 = add i128 %_14127, %_14130
  %_14131 = lshr i128 %_14126, 64
  %209 = trunc i128 %_14131 to i64
  store i64 %209, ptr %carry52, align 8
  %_6741 = trunc i128 %_14126 to i64
  %_6755 = load i64, ptr %j55, align 8, !noundef !3
  %_6756 = load i64, ptr %i47, align 8, !noundef !3
  %_6754 = add i64 %_6755, %_6756
  %_6753 = urem i64 %_6754, 4
  %_6757 = icmp ult i64 %_6753, 4
  br i1 %_6757, label %bb2796, label %panic200

panic199:                                         ; preds = %bb2793
; call core::panicking::panic_bounds_check
  call void @_RNvNtCs8OG1GeFZzXY_4core9panicking18panic_bounds_check(i64 noundef %_6751, i64 noundef 4, ptr noalias noundef readonly align 8 captures(address, read_provenance) dereferenceable(24) @alloc_41d98e10d851b9e3632a1b50dd5ef0a8) #28
  unreachable

bb2796:                                           ; preds = %bb2794
  %210 = getelementptr inbounds nuw i64, ptr %r, i64 %_6753
  store i64 %_6741, ptr %210, align 8
  call void @llvm.lifetime.end.p0(ptr %_16302)
  br label %bb2798

panic200:                                         ; preds = %bb2794
; call core::panicking::panic_bounds_check
  call void @_RNvNtCs8OG1GeFZzXY_4core9panicking18panic_bounds_check(i64 noundef %_6753, i64 noundef 4, ptr noalias noundef readonly align 8 captures(address, read_provenance) dereferenceable(24) @alloc_3736e7aeed652b81b744fa79f14aba19) #28
  unreachable

bb2799:                                           ; preds = %bb2798
  %211 = getelementptr inbounds nuw i64, ptr %r, i64 %_6758
  %212 = load i64, ptr %carry52, align 8, !noundef !3
  store i64 %212, ptr %211, align 8
  br label %bb2801

panic201:                                         ; preds = %bb2798
; call core::panicking::panic_bounds_check
  call void @_RNvNtCs8OG1GeFZzXY_4core9panicking18panic_bounds_check(i64 noundef %_6758, i64 noundef 4, ptr noalias noundef readonly align 8 captures(address, read_provenance) dereferenceable(24) @alloc_e07dad0bc349823f26226a80bb150e8a) #28
  unreachable

bb3000:                                           ; preds = %bb2801
  br label %bb3001

bb2802:                                           ; preds = %bb2801
  %_6764 = load i64, ptr %i47, align 8, !noundef !3
  %_6765 = icmp ult i64 %_6764, 4
  br i1 %_6765, label %bb2803, label %panic202

bb3001:                                           ; preds = %bb2999, %bb3000
  %213 = load i64, ptr %i47, align 8, !noundef !3
  %214 = add i64 %213, 1
  store i64 %214, ptr %i47, align 8
  %_7243 = load i64, ptr %i47, align 8, !noundef !3
  %_7242 = icmp ult i64 %_7243, 4
  br i1 %_7242, label %bb3002, label %bb3200

bb2803:                                           ; preds = %bb2802
  %215 = getelementptr inbounds nuw i64, ptr %r, i64 %_6764
  %_6763 = load i64, ptr %215, align 8, !noundef !3
  %k203 = mul i64 %_6763, -8659850874718887031
  store i64 0, ptr %carry56, align 8
  %_6768 = load i64, ptr %i47, align 8, !noundef !3
  %_6769 = icmp ult i64 %_6768, 4
  br i1 %_6769, label %bb2804, label %panic204

panic202:                                         ; preds = %bb2802
; call core::panicking::panic_bounds_check
  call void @_RNvNtCs8OG1GeFZzXY_4core9panicking18panic_bounds_check(i64 noundef %_6764, i64 noundef 4, ptr noalias noundef readonly align 8 captures(address, read_provenance) dereferenceable(24) @alloc_ffde8619649764ddfa94b9917826fa38) #28
  unreachable

bb2804:                                           ; preds = %bb2803
  %216 = getelementptr inbounds nuw i64, ptr %r, i64 %_6768
  %_6767 = load i64, ptr %216, align 8, !noundef !3
  call void @llvm.lifetime.start.p0(ptr %_16303)
  call void @llvm.memcpy.p0.p0.i64(ptr align 8 %_6771, ptr align 8 @alloc_4ac3c5d41a46e3ab32675db08dd7fc71, i64 32, i1 false)
  call void @llvm.memcpy.p0.p0.i64(ptr align 8 %_16303, ptr align 8 %_6771, i64 32, i1 false)
  %217 = getelementptr inbounds nuw i64, ptr %_16303, i64 0
  %_6770 = load i64, ptr %217, align 8, !noundef !3
  %_14135 = zext i64 %_6767 to i128
  %_14139 = zext i64 %k203 to i128
  %_14140 = zext i64 %_6770 to i128
  %_14136 = mul i128 %_14139, %_14140
  %_14134 = add i128 %_14135, %_14136
  %218 = load i64, ptr %carry56, align 8, !noundef !3
  %_14137 = zext i64 %218 to i128
  %_14133 = add i128 %_14134, %_14137
  %_14138 = lshr i128 %_14133, 64
  %219 = trunc i128 %_14138 to i64
  store i64 %219, ptr %carry56, align 8
  call void @llvm.lifetime.end.p0(ptr %_16303)
  call void @llvm.lifetime.start.p0(ptr %_6774)
  br label %bb4878

panic204:                                         ; preds = %bb2803
; call core::panicking::panic_bounds_check
  call void @_RNvNtCs8OG1GeFZzXY_4core9panicking18panic_bounds_check(i64 noundef %_6768, i64 noundef 4, ptr noalias noundef readonly align 8 captures(address, read_provenance) dereferenceable(24) @alloc_b6d549c2b3ce344d3ee993619e732d16) #28
  unreachable

bb4878:                                           ; preds = %bb2804
  %220 = getelementptr inbounds i8, ptr %_6774, i64 8
  store i64 3, ptr %220, align 8
  store i64 1, ptr %_6774, align 8
  %221 = getelementptr inbounds i8, ptr %_6774, i64 8
  %222 = load i64, ptr %221, align 8, !noundef !3
  store i64 %222, ptr %total_iters57, align 8
  br label %bb4879

bb4879:                                           ; preds = %bb4877, %bb4878
  call void @llvm.lifetime.end.p0(ptr %_6774)
  %_6776 = load i64, ptr %total_iters57, align 8, !noundef !3
  %num_loops205 = udiv i64 %_6776, 12
  %223 = load i64, ptr %total_iters57, align 8, !noundef !3
  %remainder206 = urem i64 %223, 12
  store i64 0, ptr %iter110, align 8
  br label %bb2806

bb4877:                                           ; No predecessors!
  store i64 0, ptr %total_iters57, align 8
  br label %bb4879

bb2806:                                           ; preds = %bb2902, %bb4879
  call void @llvm.lifetime.start.p0(ptr %_6778)
  %_14146 = load i64, ptr %iter110, align 8, !noundef !3
  %_14143 = icmp ult i64 %_14146, %num_loops205
  br i1 %_14143, label %bb4880, label %bb4881

bb4881:                                           ; preds = %bb2806
  call void @llvm.lifetime.end.p0(ptr %_6778)
  call void @llvm.lifetime.start.p0(ptr %j59)
  %_7011 = mul i64 %num_loops205, 12
  %224 = add i64 1, %_7011
  store i64 %224, ptr %j59, align 8
  %_7013 = load i64, ptr %j59, align 8, !noundef !3
  %_7012 = icmp ult i64 %_7013, 4
  br i1 %_7012, label %bb2903, label %bb2904

bb4880:                                           ; preds = %bb2806
  %_14144 = load i64, ptr %iter110, align 8, !noundef !3
  %225 = add nuw i64 %_14144, 1
  store i64 %225, ptr %iter110, align 8
  %226 = getelementptr inbounds i8, ptr %_6778, i64 8
  store i64 %_14144, ptr %226, align 8
  store i64 1, ptr %_6778, align 8
  %227 = getelementptr inbounds i8, ptr %_6778, i64 8
  %j955 = load i64, ptr %227, align 8, !noundef !3
  call void @llvm.lifetime.start.p0(ptr %j58)
  %_6781 = mul i64 %j955, 12
  %228 = add i64 1, %_6781
  store i64 %228, ptr %j58, align 8
  %_6783 = load i64, ptr %j58, align 8, !noundef !3
  %_6782 = icmp ult i64 %_6783, 4
  br i1 %_6782, label %bb2807, label %bb2813

bb2904:                                           ; preds = %bb4881
  br label %bb2910

bb2903:                                           ; preds = %bb4881
  %_7018 = load i64, ptr %j59, align 8, !noundef !3
  %_7019 = load i64, ptr %i47, align 8, !noundef !3
  %_7017 = add i64 %_7018, %_7019
  %_7016 = urem i64 %_7017, 4
  %_7021 = icmp ult i64 %_7016, 4
  br i1 %_7021, label %bb2906, label %panic207

bb2910:                                           ; preds = %bb2909, %bb2904
  %229 = load i64, ptr %j59, align 8, !noundef !3
  %230 = add i64 %229, 1
  store i64 %230, ptr %j59, align 8
  %_7032 = load i64, ptr %j59, align 8, !noundef !3
  %_7031 = icmp ult i64 %_7032, 4
  br i1 %_7031, label %bb2911, label %bb2917

bb2906:                                           ; preds = %bb2903
  %231 = getelementptr inbounds nuw i64, ptr %r, i64 %_7016
  %_7015 = load i64, ptr %231, align 8, !noundef !3
  call void @llvm.lifetime.start.p0(ptr %_16316)
  call void @llvm.memcpy.p0.p0.i64(ptr align 8 %_7023, ptr align 8 @alloc_4ac3c5d41a46e3ab32675db08dd7fc71, i64 32, i1 false)
  call void @llvm.memcpy.p0.p0.i64(ptr align 8 %_16316, ptr align 8 %_7023, i64 32, i1 false)
  %_7024 = load i64, ptr %j59, align 8, !noundef !3
  %_7025 = icmp ult i64 %_7024, 4
  br i1 %_7025, label %bb2907, label %panic208

panic207:                                         ; preds = %bb2903
; call core::panicking::panic_bounds_check
  call void @_RNvNtCs8OG1GeFZzXY_4core9panicking18panic_bounds_check(i64 noundef %_7016, i64 noundef 4, ptr noalias noundef readonly align 8 captures(address, read_provenance) dereferenceable(24) @alloc_318a8e9150e07c5cbdd12b81bfa85a33) #28
  unreachable

bb2907:                                           ; preds = %bb2906
  %232 = getelementptr inbounds nuw i64, ptr %_16316, i64 %_7024
  %_7022 = load i64, ptr %232, align 8, !noundef !3
  %_14233 = zext i64 %_7015 to i128
  %_14237 = zext i64 %_7022 to i128
  %_14234 = mul i128 %_14139, %_14237
  %_14232 = add i128 %_14233, %_14234
  %233 = load i64, ptr %carry56, align 8, !noundef !3
  %_14235 = zext i64 %233 to i128
  %_14231 = add i128 %_14232, %_14235
  %_14236 = lshr i128 %_14231, 64
  %234 = trunc i128 %_14236 to i64
  store i64 %234, ptr %carry56, align 8
  %_7014 = trunc i128 %_14231 to i64
  %_7028 = load i64, ptr %j59, align 8, !noundef !3
  %_7029 = load i64, ptr %i47, align 8, !noundef !3
  %_7027 = add i64 %_7028, %_7029
  %_7026 = urem i64 %_7027, 4
  %_7030 = icmp ult i64 %_7026, 4
  br i1 %_7030, label %bb2909, label %panic209

panic208:                                         ; preds = %bb2906
; call core::panicking::panic_bounds_check
  call void @_RNvNtCs8OG1GeFZzXY_4core9panicking18panic_bounds_check(i64 noundef %_7024, i64 noundef 4, ptr noalias noundef readonly align 8 captures(address, read_provenance) dereferenceable(24) @alloc_41d98e10d851b9e3632a1b50dd5ef0a8) #28
  unreachable

bb2909:                                           ; preds = %bb2907
  %235 = getelementptr inbounds nuw i64, ptr %r, i64 %_7026
  store i64 %_7014, ptr %235, align 8
  call void @llvm.lifetime.end.p0(ptr %_16316)
  br label %bb2910

panic209:                                         ; preds = %bb2907
; call core::panicking::panic_bounds_check
  call void @_RNvNtCs8OG1GeFZzXY_4core9panicking18panic_bounds_check(i64 noundef %_7026, i64 noundef 4, ptr noalias noundef readonly align 8 captures(address, read_provenance) dereferenceable(24) @alloc_3736e7aeed652b81b744fa79f14aba19) #28
  unreachable

bb2917:                                           ; preds = %bb2910
  br label %bb2918

bb2911:                                           ; preds = %bb2910
  %_7037 = load i64, ptr %j59, align 8, !noundef !3
  %_7038 = load i64, ptr %i47, align 8, !noundef !3
  %_7036 = add i64 %_7037, %_7038
  %_7035 = urem i64 %_7036, 4
  %_7040 = icmp ult i64 %_7035, 4
  br i1 %_7040, label %bb2913, label %panic210

bb2918:                                           ; preds = %bb2916, %bb2917
  %236 = load i64, ptr %j59, align 8, !noundef !3
  %237 = add i64 %236, 1
  store i64 %237, ptr %j59, align 8
  %_7051 = load i64, ptr %j59, align 8, !noundef !3
  %_7050 = icmp ult i64 %_7051, 4
  br i1 %_7050, label %bb2919, label %bb2925

bb2913:                                           ; preds = %bb2911
  %238 = getelementptr inbounds nuw i64, ptr %r, i64 %_7035
  %_7034 = load i64, ptr %238, align 8, !noundef !3
  call void @llvm.lifetime.start.p0(ptr %_16317)
  call void @llvm.memcpy.p0.p0.i64(ptr align 8 %_7042, ptr align 8 @alloc_4ac3c5d41a46e3ab32675db08dd7fc71, i64 32, i1 false)
  call void @llvm.memcpy.p0.p0.i64(ptr align 8 %_16317, ptr align 8 %_7042, i64 32, i1 false)
  %_7043 = load i64, ptr %j59, align 8, !noundef !3
  %_7044 = icmp ult i64 %_7043, 4
  br i1 %_7044, label %bb2914, label %panic211

panic210:                                         ; preds = %bb2911
; call core::panicking::panic_bounds_check
  call void @_RNvNtCs8OG1GeFZzXY_4core9panicking18panic_bounds_check(i64 noundef %_7035, i64 noundef 4, ptr noalias noundef readonly align 8 captures(address, read_provenance) dereferenceable(24) @alloc_318a8e9150e07c5cbdd12b81bfa85a33) #28
  unreachable

bb2914:                                           ; preds = %bb2913
  %239 = getelementptr inbounds nuw i64, ptr %_16317, i64 %_7043
  %_7041 = load i64, ptr %239, align 8, !noundef !3
  %_14240 = zext i64 %_7034 to i128
  %_14244 = zext i64 %_7041 to i128
  %_14241 = mul i128 %_14139, %_14244
  %_14239 = add i128 %_14240, %_14241
  %240 = load i64, ptr %carry56, align 8, !noundef !3
  %_14242 = zext i64 %240 to i128
  %_14238 = add i128 %_14239, %_14242
  %_14243 = lshr i128 %_14238, 64
  %241 = trunc i128 %_14243 to i64
  store i64 %241, ptr %carry56, align 8
  %_7033 = trunc i128 %_14238 to i64
  %_7047 = load i64, ptr %j59, align 8, !noundef !3
  %_7048 = load i64, ptr %i47, align 8, !noundef !3
  %_7046 = add i64 %_7047, %_7048
  %_7045 = urem i64 %_7046, 4
  %_7049 = icmp ult i64 %_7045, 4
  br i1 %_7049, label %bb2916, label %panic212

panic211:                                         ; preds = %bb2913
; call core::panicking::panic_bounds_check
  call void @_RNvNtCs8OG1GeFZzXY_4core9panicking18panic_bounds_check(i64 noundef %_7043, i64 noundef 4, ptr noalias noundef readonly align 8 captures(address, read_provenance) dereferenceable(24) @alloc_41d98e10d851b9e3632a1b50dd5ef0a8) #28
  unreachable

bb2916:                                           ; preds = %bb2914
  %242 = getelementptr inbounds nuw i64, ptr %r, i64 %_7045
  store i64 %_7033, ptr %242, align 8
  call void @llvm.lifetime.end.p0(ptr %_16317)
  br label %bb2918

panic212:                                         ; preds = %bb2914
; call core::panicking::panic_bounds_check
  call void @_RNvNtCs8OG1GeFZzXY_4core9panicking18panic_bounds_check(i64 noundef %_7045, i64 noundef 4, ptr noalias noundef readonly align 8 captures(address, read_provenance) dereferenceable(24) @alloc_3736e7aeed652b81b744fa79f14aba19) #28
  unreachable

bb2925:                                           ; preds = %bb2918
  br label %bb2926

bb2919:                                           ; preds = %bb2918
  %_7056 = load i64, ptr %j59, align 8, !noundef !3
  %_7057 = load i64, ptr %i47, align 8, !noundef !3
  %_7055 = add i64 %_7056, %_7057
  %_7054 = urem i64 %_7055, 4
  %_7059 = icmp ult i64 %_7054, 4
  br i1 %_7059, label %bb2921, label %panic213

bb2926:                                           ; preds = %bb2924, %bb2925
  %243 = load i64, ptr %j59, align 8, !noundef !3
  %244 = add i64 %243, 1
  store i64 %244, ptr %j59, align 8
  %_7070 = load i64, ptr %j59, align 8, !noundef !3
  %_7069 = icmp ult i64 %_7070, 4
  br i1 %_7069, label %bb2927, label %bb2933

bb2921:                                           ; preds = %bb2919
  %245 = getelementptr inbounds nuw i64, ptr %r, i64 %_7054
  %_7053 = load i64, ptr %245, align 8, !noundef !3
  call void @llvm.lifetime.start.p0(ptr %_16318)
  call void @llvm.memcpy.p0.p0.i64(ptr align 8 %_7061, ptr align 8 @alloc_4ac3c5d41a46e3ab32675db08dd7fc71, i64 32, i1 false)
  call void @llvm.memcpy.p0.p0.i64(ptr align 8 %_16318, ptr align 8 %_7061, i64 32, i1 false)
  %_7062 = load i64, ptr %j59, align 8, !noundef !3
  %_7063 = icmp ult i64 %_7062, 4
  br i1 %_7063, label %bb2922, label %panic214

panic213:                                         ; preds = %bb2919
; call core::panicking::panic_bounds_check
  call void @_RNvNtCs8OG1GeFZzXY_4core9panicking18panic_bounds_check(i64 noundef %_7054, i64 noundef 4, ptr noalias noundef readonly align 8 captures(address, read_provenance) dereferenceable(24) @alloc_318a8e9150e07c5cbdd12b81bfa85a33) #28
  unreachable

bb2922:                                           ; preds = %bb2921
  %246 = getelementptr inbounds nuw i64, ptr %_16318, i64 %_7062
  %_7060 = load i64, ptr %246, align 8, !noundef !3
  %_14247 = zext i64 %_7053 to i128
  %_14251 = zext i64 %_7060 to i128
  %_14248 = mul i128 %_14139, %_14251
  %_14246 = add i128 %_14247, %_14248
  %247 = load i64, ptr %carry56, align 8, !noundef !3
  %_14249 = zext i64 %247 to i128
  %_14245 = add i128 %_14246, %_14249
  %_14250 = lshr i128 %_14245, 64
  %248 = trunc i128 %_14250 to i64
  store i64 %248, ptr %carry56, align 8
  %_7052 = trunc i128 %_14245 to i64
  %_7066 = load i64, ptr %j59, align 8, !noundef !3
  %_7067 = load i64, ptr %i47, align 8, !noundef !3
  %_7065 = add i64 %_7066, %_7067
  %_7064 = urem i64 %_7065, 4
  %_7068 = icmp ult i64 %_7064, 4
  br i1 %_7068, label %bb2924, label %panic215

panic214:                                         ; preds = %bb2921
; call core::panicking::panic_bounds_check
  call void @_RNvNtCs8OG1GeFZzXY_4core9panicking18panic_bounds_check(i64 noundef %_7062, i64 noundef 4, ptr noalias noundef readonly align 8 captures(address, read_provenance) dereferenceable(24) @alloc_41d98e10d851b9e3632a1b50dd5ef0a8) #28
  unreachable

bb2924:                                           ; preds = %bb2922
  %249 = getelementptr inbounds nuw i64, ptr %r, i64 %_7064
  store i64 %_7052, ptr %249, align 8
  call void @llvm.lifetime.end.p0(ptr %_16318)
  br label %bb2926

panic215:                                         ; preds = %bb2922
; call core::panicking::panic_bounds_check
  call void @_RNvNtCs8OG1GeFZzXY_4core9panicking18panic_bounds_check(i64 noundef %_7064, i64 noundef 4, ptr noalias noundef readonly align 8 captures(address, read_provenance) dereferenceable(24) @alloc_3736e7aeed652b81b744fa79f14aba19) #28
  unreachable

bb2933:                                           ; preds = %bb2926
  br label %bb2934

bb2927:                                           ; preds = %bb2926
  %_7075 = load i64, ptr %j59, align 8, !noundef !3
  %_7076 = load i64, ptr %i47, align 8, !noundef !3
  %_7074 = add i64 %_7075, %_7076
  %_7073 = urem i64 %_7074, 4
  %_7078 = icmp ult i64 %_7073, 4
  br i1 %_7078, label %bb2929, label %panic216

bb2934:                                           ; preds = %bb2932, %bb2933
  %250 = load i64, ptr %j59, align 8, !noundef !3
  %251 = add i64 %250, 1
  store i64 %251, ptr %j59, align 8
  %_7089 = load i64, ptr %j59, align 8, !noundef !3
  %_7088 = icmp ult i64 %_7089, 4
  br i1 %_7088, label %bb2935, label %bb2941

bb2929:                                           ; preds = %bb2927
  %252 = getelementptr inbounds nuw i64, ptr %r, i64 %_7073
  %_7072 = load i64, ptr %252, align 8, !noundef !3
  call void @llvm.lifetime.start.p0(ptr %_16319)
  call void @llvm.memcpy.p0.p0.i64(ptr align 8 %_7080, ptr align 8 @alloc_4ac3c5d41a46e3ab32675db08dd7fc71, i64 32, i1 false)
  call void @llvm.memcpy.p0.p0.i64(ptr align 8 %_16319, ptr align 8 %_7080, i64 32, i1 false)
  %_7081 = load i64, ptr %j59, align 8, !noundef !3
  %_7082 = icmp ult i64 %_7081, 4
  br i1 %_7082, label %bb2930, label %panic217

panic216:                                         ; preds = %bb2927
; call core::panicking::panic_bounds_check
  call void @_RNvNtCs8OG1GeFZzXY_4core9panicking18panic_bounds_check(i64 noundef %_7073, i64 noundef 4, ptr noalias noundef readonly align 8 captures(address, read_provenance) dereferenceable(24) @alloc_318a8e9150e07c5cbdd12b81bfa85a33) #28
  unreachable

bb2930:                                           ; preds = %bb2929
  %253 = getelementptr inbounds nuw i64, ptr %_16319, i64 %_7081
  %_7079 = load i64, ptr %253, align 8, !noundef !3
  %_14254 = zext i64 %_7072 to i128
  %_14258 = zext i64 %_7079 to i128
  %_14255 = mul i128 %_14139, %_14258
  %_14253 = add i128 %_14254, %_14255
  %254 = load i64, ptr %carry56, align 8, !noundef !3
  %_14256 = zext i64 %254 to i128
  %_14252 = add i128 %_14253, %_14256
  %_14257 = lshr i128 %_14252, 64
  %255 = trunc i128 %_14257 to i64
  store i64 %255, ptr %carry56, align 8
  %_7071 = trunc i128 %_14252 to i64
  %_7085 = load i64, ptr %j59, align 8, !noundef !3
  %_7086 = load i64, ptr %i47, align 8, !noundef !3
  %_7084 = add i64 %_7085, %_7086
  %_7083 = urem i64 %_7084, 4
  %_7087 = icmp ult i64 %_7083, 4
  br i1 %_7087, label %bb2932, label %panic218

panic217:                                         ; preds = %bb2929
; call core::panicking::panic_bounds_check
  call void @_RNvNtCs8OG1GeFZzXY_4core9panicking18panic_bounds_check(i64 noundef %_7081, i64 noundef 4, ptr noalias noundef readonly align 8 captures(address, read_provenance) dereferenceable(24) @alloc_41d98e10d851b9e3632a1b50dd5ef0a8) #28
  unreachable

bb2932:                                           ; preds = %bb2930
  %256 = getelementptr inbounds nuw i64, ptr %r, i64 %_7083
  store i64 %_7071, ptr %256, align 8
  call void @llvm.lifetime.end.p0(ptr %_16319)
  br label %bb2934

panic218:                                         ; preds = %bb2930
; call core::panicking::panic_bounds_check
  call void @_RNvNtCs8OG1GeFZzXY_4core9panicking18panic_bounds_check(i64 noundef %_7083, i64 noundef 4, ptr noalias noundef readonly align 8 captures(address, read_provenance) dereferenceable(24) @alloc_3736e7aeed652b81b744fa79f14aba19) #28
  unreachable

bb2941:                                           ; preds = %bb2934
  br label %bb2942

bb2935:                                           ; preds = %bb2934
  %_7094 = load i64, ptr %j59, align 8, !noundef !3
  %_7095 = load i64, ptr %i47, align 8, !noundef !3
  %_7093 = add i64 %_7094, %_7095
  %_7092 = urem i64 %_7093, 4
  %_7097 = icmp ult i64 %_7092, 4
  br i1 %_7097, label %bb2937, label %panic219

bb2942:                                           ; preds = %bb2940, %bb2941
  %257 = load i64, ptr %j59, align 8, !noundef !3
  %258 = add i64 %257, 1
  store i64 %258, ptr %j59, align 8
  %_7108 = load i64, ptr %j59, align 8, !noundef !3
  %_7107 = icmp ult i64 %_7108, 4
  br i1 %_7107, label %bb2943, label %bb2949

bb2937:                                           ; preds = %bb2935
  %259 = getelementptr inbounds nuw i64, ptr %r, i64 %_7092
  %_7091 = load i64, ptr %259, align 8, !noundef !3
  call void @llvm.lifetime.start.p0(ptr %_16320)
  call void @llvm.memcpy.p0.p0.i64(ptr align 8 %_7099, ptr align 8 @alloc_4ac3c5d41a46e3ab32675db08dd7fc71, i64 32, i1 false)
  call void @llvm.memcpy.p0.p0.i64(ptr align 8 %_16320, ptr align 8 %_7099, i64 32, i1 false)
  %_7100 = load i64, ptr %j59, align 8, !noundef !3
  %_7101 = icmp ult i64 %_7100, 4
  br i1 %_7101, label %bb2938, label %panic220

panic219:                                         ; preds = %bb2935
; call core::panicking::panic_bounds_check
  call void @_RNvNtCs8OG1GeFZzXY_4core9panicking18panic_bounds_check(i64 noundef %_7092, i64 noundef 4, ptr noalias noundef readonly align 8 captures(address, read_provenance) dereferenceable(24) @alloc_318a8e9150e07c5cbdd12b81bfa85a33) #28
  unreachable

bb2938:                                           ; preds = %bb2937
  %260 = getelementptr inbounds nuw i64, ptr %_16320, i64 %_7100
  %_7098 = load i64, ptr %260, align 8, !noundef !3
  %_14261 = zext i64 %_7091 to i128
  %_14265 = zext i64 %_7098 to i128
  %_14262 = mul i128 %_14139, %_14265
  %_14260 = add i128 %_14261, %_14262
  %261 = load i64, ptr %carry56, align 8, !noundef !3
  %_14263 = zext i64 %261 to i128
  %_14259 = add i128 %_14260, %_14263
  %_14264 = lshr i128 %_14259, 64
  %262 = trunc i128 %_14264 to i64
  store i64 %262, ptr %carry56, align 8
  %_7090 = trunc i128 %_14259 to i64
  %_7104 = load i64, ptr %j59, align 8, !noundef !3
  %_7105 = load i64, ptr %i47, align 8, !noundef !3
  %_7103 = add i64 %_7104, %_7105
  %_7102 = urem i64 %_7103, 4
  %_7106 = icmp ult i64 %_7102, 4
  br i1 %_7106, label %bb2940, label %panic221

panic220:                                         ; preds = %bb2937
; call core::panicking::panic_bounds_check
  call void @_RNvNtCs8OG1GeFZzXY_4core9panicking18panic_bounds_check(i64 noundef %_7100, i64 noundef 4, ptr noalias noundef readonly align 8 captures(address, read_provenance) dereferenceable(24) @alloc_41d98e10d851b9e3632a1b50dd5ef0a8) #28
  unreachable

bb2940:                                           ; preds = %bb2938
  %263 = getelementptr inbounds nuw i64, ptr %r, i64 %_7102
  store i64 %_7090, ptr %263, align 8
  call void @llvm.lifetime.end.p0(ptr %_16320)
  br label %bb2942

panic221:                                         ; preds = %bb2938
; call core::panicking::panic_bounds_check
  call void @_RNvNtCs8OG1GeFZzXY_4core9panicking18panic_bounds_check(i64 noundef %_7102, i64 noundef 4, ptr noalias noundef readonly align 8 captures(address, read_provenance) dereferenceable(24) @alloc_3736e7aeed652b81b744fa79f14aba19) #28
  unreachable

bb2949:                                           ; preds = %bb2942
  br label %bb2950

bb2943:                                           ; preds = %bb2942
  %_7113 = load i64, ptr %j59, align 8, !noundef !3
  %_7114 = load i64, ptr %i47, align 8, !noundef !3
  %_7112 = add i64 %_7113, %_7114
  %_7111 = urem i64 %_7112, 4
  %_7116 = icmp ult i64 %_7111, 4
  br i1 %_7116, label %bb2945, label %panic222

bb2950:                                           ; preds = %bb2948, %bb2949
  %264 = load i64, ptr %j59, align 8, !noundef !3
  %265 = add i64 %264, 1
  store i64 %265, ptr %j59, align 8
  %_7127 = load i64, ptr %j59, align 8, !noundef !3
  %_7126 = icmp ult i64 %_7127, 4
  br i1 %_7126, label %bb2951, label %bb2957

bb2945:                                           ; preds = %bb2943
  %266 = getelementptr inbounds nuw i64, ptr %r, i64 %_7111
  %_7110 = load i64, ptr %266, align 8, !noundef !3
  call void @llvm.lifetime.start.p0(ptr %_16321)
  call void @llvm.memcpy.p0.p0.i64(ptr align 8 %_7118, ptr align 8 @alloc_4ac3c5d41a46e3ab32675db08dd7fc71, i64 32, i1 false)
  call void @llvm.memcpy.p0.p0.i64(ptr align 8 %_16321, ptr align 8 %_7118, i64 32, i1 false)
  %_7119 = load i64, ptr %j59, align 8, !noundef !3
  %_7120 = icmp ult i64 %_7119, 4
  br i1 %_7120, label %bb2946, label %panic223

panic222:                                         ; preds = %bb2943
; call core::panicking::panic_bounds_check
  call void @_RNvNtCs8OG1GeFZzXY_4core9panicking18panic_bounds_check(i64 noundef %_7111, i64 noundef 4, ptr noalias noundef readonly align 8 captures(address, read_provenance) dereferenceable(24) @alloc_318a8e9150e07c5cbdd12b81bfa85a33) #28
  unreachable

bb2946:                                           ; preds = %bb2945
  %267 = getelementptr inbounds nuw i64, ptr %_16321, i64 %_7119
  %_7117 = load i64, ptr %267, align 8, !noundef !3
  %_14268 = zext i64 %_7110 to i128
  %_14272 = zext i64 %_7117 to i128
  %_14269 = mul i128 %_14139, %_14272
  %_14267 = add i128 %_14268, %_14269
  %268 = load i64, ptr %carry56, align 8, !noundef !3
  %_14270 = zext i64 %268 to i128
  %_14266 = add i128 %_14267, %_14270
  %_14271 = lshr i128 %_14266, 64
  %269 = trunc i128 %_14271 to i64
  store i64 %269, ptr %carry56, align 8
  %_7109 = trunc i128 %_14266 to i64
  %_7123 = load i64, ptr %j59, align 8, !noundef !3
  %_7124 = load i64, ptr %i47, align 8, !noundef !3
  %_7122 = add i64 %_7123, %_7124
  %_7121 = urem i64 %_7122, 4
  %_7125 = icmp ult i64 %_7121, 4
  br i1 %_7125, label %bb2948, label %panic224

panic223:                                         ; preds = %bb2945
; call core::panicking::panic_bounds_check
  call void @_RNvNtCs8OG1GeFZzXY_4core9panicking18panic_bounds_check(i64 noundef %_7119, i64 noundef 4, ptr noalias noundef readonly align 8 captures(address, read_provenance) dereferenceable(24) @alloc_41d98e10d851b9e3632a1b50dd5ef0a8) #28
  unreachable

bb2948:                                           ; preds = %bb2946
  %270 = getelementptr inbounds nuw i64, ptr %r, i64 %_7121
  store i64 %_7109, ptr %270, align 8
  call void @llvm.lifetime.end.p0(ptr %_16321)
  br label %bb2950

panic224:                                         ; preds = %bb2946
; call core::panicking::panic_bounds_check
  call void @_RNvNtCs8OG1GeFZzXY_4core9panicking18panic_bounds_check(i64 noundef %_7121, i64 noundef 4, ptr noalias noundef readonly align 8 captures(address, read_provenance) dereferenceable(24) @alloc_3736e7aeed652b81b744fa79f14aba19) #28
  unreachable

bb2957:                                           ; preds = %bb2950
  br label %bb2958

bb2951:                                           ; preds = %bb2950
  %_7132 = load i64, ptr %j59, align 8, !noundef !3
  %_7133 = load i64, ptr %i47, align 8, !noundef !3
  %_7131 = add i64 %_7132, %_7133
  %_7130 = urem i64 %_7131, 4
  %_7135 = icmp ult i64 %_7130, 4
  br i1 %_7135, label %bb2953, label %panic225

bb2958:                                           ; preds = %bb2956, %bb2957
  %271 = load i64, ptr %j59, align 8, !noundef !3
  %272 = add i64 %271, 1
  store i64 %272, ptr %j59, align 8
  %_7146 = load i64, ptr %j59, align 8, !noundef !3
  %_7145 = icmp ult i64 %_7146, 4
  br i1 %_7145, label %bb2959, label %bb2965

bb2953:                                           ; preds = %bb2951
  %273 = getelementptr inbounds nuw i64, ptr %r, i64 %_7130
  %_7129 = load i64, ptr %273, align 8, !noundef !3
  call void @llvm.lifetime.start.p0(ptr %_16322)
  call void @llvm.memcpy.p0.p0.i64(ptr align 8 %_7137, ptr align 8 @alloc_4ac3c5d41a46e3ab32675db08dd7fc71, i64 32, i1 false)
  call void @llvm.memcpy.p0.p0.i64(ptr align 8 %_16322, ptr align 8 %_7137, i64 32, i1 false)
  %_7138 = load i64, ptr %j59, align 8, !noundef !3
  %_7139 = icmp ult i64 %_7138, 4
  br i1 %_7139, label %bb2954, label %panic226

panic225:                                         ; preds = %bb2951
; call core::panicking::panic_bounds_check
  call void @_RNvNtCs8OG1GeFZzXY_4core9panicking18panic_bounds_check(i64 noundef %_7130, i64 noundef 4, ptr noalias noundef readonly align 8 captures(address, read_provenance) dereferenceable(24) @alloc_318a8e9150e07c5cbdd12b81bfa85a33) #28
  unreachable

bb2954:                                           ; preds = %bb2953
  %274 = getelementptr inbounds nuw i64, ptr %_16322, i64 %_7138
  %_7136 = load i64, ptr %274, align 8, !noundef !3
  %_14275 = zext i64 %_7129 to i128
  %_14279 = zext i64 %_7136 to i128
  %_14276 = mul i128 %_14139, %_14279
  %_14274 = add i128 %_14275, %_14276
  %275 = load i64, ptr %carry56, align 8, !noundef !3
  %_14277 = zext i64 %275 to i128
  %_14273 = add i128 %_14274, %_14277
  %_14278 = lshr i128 %_14273, 64
  %276 = trunc i128 %_14278 to i64
  store i64 %276, ptr %carry56, align 8
  %_7128 = trunc i128 %_14273 to i64
  %_7142 = load i64, ptr %j59, align 8, !noundef !3
  %_7143 = load i64, ptr %i47, align 8, !noundef !3
  %_7141 = add i64 %_7142, %_7143
  %_7140 = urem i64 %_7141, 4
  %_7144 = icmp ult i64 %_7140, 4
  br i1 %_7144, label %bb2956, label %panic227

panic226:                                         ; preds = %bb2953
; call core::panicking::panic_bounds_check
  call void @_RNvNtCs8OG1GeFZzXY_4core9panicking18panic_bounds_check(i64 noundef %_7138, i64 noundef 4, ptr noalias noundef readonly align 8 captures(address, read_provenance) dereferenceable(24) @alloc_41d98e10d851b9e3632a1b50dd5ef0a8) #28
  unreachable

bb2956:                                           ; preds = %bb2954
  %277 = getelementptr inbounds nuw i64, ptr %r, i64 %_7140
  store i64 %_7128, ptr %277, align 8
  call void @llvm.lifetime.end.p0(ptr %_16322)
  br label %bb2958

panic227:                                         ; preds = %bb2954
; call core::panicking::panic_bounds_check
  call void @_RNvNtCs8OG1GeFZzXY_4core9panicking18panic_bounds_check(i64 noundef %_7140, i64 noundef 4, ptr noalias noundef readonly align 8 captures(address, read_provenance) dereferenceable(24) @alloc_3736e7aeed652b81b744fa79f14aba19) #28
  unreachable

bb2965:                                           ; preds = %bb2958
  br label %bb2966

bb2959:                                           ; preds = %bb2958
  %_7151 = load i64, ptr %j59, align 8, !noundef !3
  %_7152 = load i64, ptr %i47, align 8, !noundef !3
  %_7150 = add i64 %_7151, %_7152
  %_7149 = urem i64 %_7150, 4
  %_7154 = icmp ult i64 %_7149, 4
  br i1 %_7154, label %bb2961, label %panic228

bb2966:                                           ; preds = %bb2964, %bb2965
  %278 = load i64, ptr %j59, align 8, !noundef !3
  %279 = add i64 %278, 1
  store i64 %279, ptr %j59, align 8
  %_7165 = load i64, ptr %j59, align 8, !noundef !3
  %_7164 = icmp ult i64 %_7165, 4
  br i1 %_7164, label %bb2967, label %bb2973

bb2961:                                           ; preds = %bb2959
  %280 = getelementptr inbounds nuw i64, ptr %r, i64 %_7149
  %_7148 = load i64, ptr %280, align 8, !noundef !3
  call void @llvm.lifetime.start.p0(ptr %_16323)
  call void @llvm.memcpy.p0.p0.i64(ptr align 8 %_7156, ptr align 8 @alloc_4ac3c5d41a46e3ab32675db08dd7fc71, i64 32, i1 false)
  call void @llvm.memcpy.p0.p0.i64(ptr align 8 %_16323, ptr align 8 %_7156, i64 32, i1 false)
  %_7157 = load i64, ptr %j59, align 8, !noundef !3
  %_7158 = icmp ult i64 %_7157, 4
  br i1 %_7158, label %bb2962, label %panic229

panic228:                                         ; preds = %bb2959
; call core::panicking::panic_bounds_check
  call void @_RNvNtCs8OG1GeFZzXY_4core9panicking18panic_bounds_check(i64 noundef %_7149, i64 noundef 4, ptr noalias noundef readonly align 8 captures(address, read_provenance) dereferenceable(24) @alloc_318a8e9150e07c5cbdd12b81bfa85a33) #28
  unreachable

bb2962:                                           ; preds = %bb2961
  %281 = getelementptr inbounds nuw i64, ptr %_16323, i64 %_7157
  %_7155 = load i64, ptr %281, align 8, !noundef !3
  %_14282 = zext i64 %_7148 to i128
  %_14286 = zext i64 %_7155 to i128
  %_14283 = mul i128 %_14139, %_14286
  %_14281 = add i128 %_14282, %_14283
  %282 = load i64, ptr %carry56, align 8, !noundef !3
  %_14284 = zext i64 %282 to i128
  %_14280 = add i128 %_14281, %_14284
  %_14285 = lshr i128 %_14280, 64
  %283 = trunc i128 %_14285 to i64
  store i64 %283, ptr %carry56, align 8
  %_7147 = trunc i128 %_14280 to i64
  %_7161 = load i64, ptr %j59, align 8, !noundef !3
  %_7162 = load i64, ptr %i47, align 8, !noundef !3
  %_7160 = add i64 %_7161, %_7162
  %_7159 = urem i64 %_7160, 4
  %_7163 = icmp ult i64 %_7159, 4
  br i1 %_7163, label %bb2964, label %panic230

panic229:                                         ; preds = %bb2961
; call core::panicking::panic_bounds_check
  call void @_RNvNtCs8OG1GeFZzXY_4core9panicking18panic_bounds_check(i64 noundef %_7157, i64 noundef 4, ptr noalias noundef readonly align 8 captures(address, read_provenance) dereferenceable(24) @alloc_41d98e10d851b9e3632a1b50dd5ef0a8) #28
  unreachable

bb2964:                                           ; preds = %bb2962
  %284 = getelementptr inbounds nuw i64, ptr %r, i64 %_7159
  store i64 %_7147, ptr %284, align 8
  call void @llvm.lifetime.end.p0(ptr %_16323)
  br label %bb2966

panic230:                                         ; preds = %bb2962
; call core::panicking::panic_bounds_check
  call void @_RNvNtCs8OG1GeFZzXY_4core9panicking18panic_bounds_check(i64 noundef %_7159, i64 noundef 4, ptr noalias noundef readonly align 8 captures(address, read_provenance) dereferenceable(24) @alloc_3736e7aeed652b81b744fa79f14aba19) #28
  unreachable

bb2973:                                           ; preds = %bb2966
  br label %bb2974

bb2967:                                           ; preds = %bb2966
  %_7170 = load i64, ptr %j59, align 8, !noundef !3
  %_7171 = load i64, ptr %i47, align 8, !noundef !3
  %_7169 = add i64 %_7170, %_7171
  %_7168 = urem i64 %_7169, 4
  %_7173 = icmp ult i64 %_7168, 4
  br i1 %_7173, label %bb2969, label %panic231

bb2974:                                           ; preds = %bb2972, %bb2973
  %285 = load i64, ptr %j59, align 8, !noundef !3
  %286 = add i64 %285, 1
  store i64 %286, ptr %j59, align 8
  %_7184 = load i64, ptr %j59, align 8, !noundef !3
  %_7183 = icmp ult i64 %_7184, 4
  br i1 %_7183, label %bb2975, label %bb2981

bb2969:                                           ; preds = %bb2967
  %287 = getelementptr inbounds nuw i64, ptr %r, i64 %_7168
  %_7167 = load i64, ptr %287, align 8, !noundef !3
  call void @llvm.lifetime.start.p0(ptr %_16324)
  call void @llvm.memcpy.p0.p0.i64(ptr align 8 %_7175, ptr align 8 @alloc_4ac3c5d41a46e3ab32675db08dd7fc71, i64 32, i1 false)
  call void @llvm.memcpy.p0.p0.i64(ptr align 8 %_16324, ptr align 8 %_7175, i64 32, i1 false)
  %_7176 = load i64, ptr %j59, align 8, !noundef !3
  %_7177 = icmp ult i64 %_7176, 4
  br i1 %_7177, label %bb2970, label %panic232

panic231:                                         ; preds = %bb2967
; call core::panicking::panic_bounds_check
  call void @_RNvNtCs8OG1GeFZzXY_4core9panicking18panic_bounds_check(i64 noundef %_7168, i64 noundef 4, ptr noalias noundef readonly align 8 captures(address, read_provenance) dereferenceable(24) @alloc_318a8e9150e07c5cbdd12b81bfa85a33) #28
  unreachable

bb2970:                                           ; preds = %bb2969
  %288 = getelementptr inbounds nuw i64, ptr %_16324, i64 %_7176
  %_7174 = load i64, ptr %288, align 8, !noundef !3
  %_14289 = zext i64 %_7167 to i128
  %_14293 = zext i64 %_7174 to i128
  %_14290 = mul i128 %_14139, %_14293
  %_14288 = add i128 %_14289, %_14290
  %289 = load i64, ptr %carry56, align 8, !noundef !3
  %_14291 = zext i64 %289 to i128
  %_14287 = add i128 %_14288, %_14291
  %_14292 = lshr i128 %_14287, 64
  %290 = trunc i128 %_14292 to i64
  store i64 %290, ptr %carry56, align 8
  %_7166 = trunc i128 %_14287 to i64
  %_7180 = load i64, ptr %j59, align 8, !noundef !3
  %_7181 = load i64, ptr %i47, align 8, !noundef !3
  %_7179 = add i64 %_7180, %_7181
  %_7178 = urem i64 %_7179, 4
  %_7182 = icmp ult i64 %_7178, 4
  br i1 %_7182, label %bb2972, label %panic233

panic232:                                         ; preds = %bb2969
; call core::panicking::panic_bounds_check
  call void @_RNvNtCs8OG1GeFZzXY_4core9panicking18panic_bounds_check(i64 noundef %_7176, i64 noundef 4, ptr noalias noundef readonly align 8 captures(address, read_provenance) dereferenceable(24) @alloc_41d98e10d851b9e3632a1b50dd5ef0a8) #28
  unreachable

bb2972:                                           ; preds = %bb2970
  %291 = getelementptr inbounds nuw i64, ptr %r, i64 %_7178
  store i64 %_7166, ptr %291, align 8
  call void @llvm.lifetime.end.p0(ptr %_16324)
  br label %bb2974

panic233:                                         ; preds = %bb2970
; call core::panicking::panic_bounds_check
  call void @_RNvNtCs8OG1GeFZzXY_4core9panicking18panic_bounds_check(i64 noundef %_7178, i64 noundef 4, ptr noalias noundef readonly align 8 captures(address, read_provenance) dereferenceable(24) @alloc_3736e7aeed652b81b744fa79f14aba19) #28
  unreachable

bb2981:                                           ; preds = %bb2974
  br label %bb2982

bb2975:                                           ; preds = %bb2974
  %_7189 = load i64, ptr %j59, align 8, !noundef !3
  %_7190 = load i64, ptr %i47, align 8, !noundef !3
  %_7188 = add i64 %_7189, %_7190
  %_7187 = urem i64 %_7188, 4
  %_7192 = icmp ult i64 %_7187, 4
  br i1 %_7192, label %bb2977, label %panic234

bb2982:                                           ; preds = %bb2980, %bb2981
  %292 = load i64, ptr %j59, align 8, !noundef !3
  %293 = add i64 %292, 1
  store i64 %293, ptr %j59, align 8
  %_7203 = load i64, ptr %j59, align 8, !noundef !3
  %_7202 = icmp ult i64 %_7203, 4
  br i1 %_7202, label %bb2983, label %bb2989

bb2977:                                           ; preds = %bb2975
  %294 = getelementptr inbounds nuw i64, ptr %r, i64 %_7187
  %_7186 = load i64, ptr %294, align 8, !noundef !3
  call void @llvm.lifetime.start.p0(ptr %_16325)
  call void @llvm.memcpy.p0.p0.i64(ptr align 8 %_7194, ptr align 8 @alloc_4ac3c5d41a46e3ab32675db08dd7fc71, i64 32, i1 false)
  call void @llvm.memcpy.p0.p0.i64(ptr align 8 %_16325, ptr align 8 %_7194, i64 32, i1 false)
  %_7195 = load i64, ptr %j59, align 8, !noundef !3
  %_7196 = icmp ult i64 %_7195, 4
  br i1 %_7196, label %bb2978, label %panic235

panic234:                                         ; preds = %bb2975
; call core::panicking::panic_bounds_check
  call void @_RNvNtCs8OG1GeFZzXY_4core9panicking18panic_bounds_check(i64 noundef %_7187, i64 noundef 4, ptr noalias noundef readonly align 8 captures(address, read_provenance) dereferenceable(24) @alloc_318a8e9150e07c5cbdd12b81bfa85a33) #28
  unreachable

bb2978:                                           ; preds = %bb2977
  %295 = getelementptr inbounds nuw i64, ptr %_16325, i64 %_7195
  %_7193 = load i64, ptr %295, align 8, !noundef !3
  %_14296 = zext i64 %_7186 to i128
  %_14300 = zext i64 %_7193 to i128
  %_14297 = mul i128 %_14139, %_14300
  %_14295 = add i128 %_14296, %_14297
  %296 = load i64, ptr %carry56, align 8, !noundef !3
  %_14298 = zext i64 %296 to i128
  %_14294 = add i128 %_14295, %_14298
  %_14299 = lshr i128 %_14294, 64
  %297 = trunc i128 %_14299 to i64
  store i64 %297, ptr %carry56, align 8
  %_7185 = trunc i128 %_14294 to i64
  %_7199 = load i64, ptr %j59, align 8, !noundef !3
  %_7200 = load i64, ptr %i47, align 8, !noundef !3
  %_7198 = add i64 %_7199, %_7200
  %_7197 = urem i64 %_7198, 4
  %_7201 = icmp ult i64 %_7197, 4
  br i1 %_7201, label %bb2980, label %panic236

panic235:                                         ; preds = %bb2977
; call core::panicking::panic_bounds_check
  call void @_RNvNtCs8OG1GeFZzXY_4core9panicking18panic_bounds_check(i64 noundef %_7195, i64 noundef 4, ptr noalias noundef readonly align 8 captures(address, read_provenance) dereferenceable(24) @alloc_41d98e10d851b9e3632a1b50dd5ef0a8) #28
  unreachable

bb2980:                                           ; preds = %bb2978
  %298 = getelementptr inbounds nuw i64, ptr %r, i64 %_7197
  store i64 %_7185, ptr %298, align 8
  call void @llvm.lifetime.end.p0(ptr %_16325)
  br label %bb2982

panic236:                                         ; preds = %bb2978
; call core::panicking::panic_bounds_check
  call void @_RNvNtCs8OG1GeFZzXY_4core9panicking18panic_bounds_check(i64 noundef %_7197, i64 noundef 4, ptr noalias noundef readonly align 8 captures(address, read_provenance) dereferenceable(24) @alloc_3736e7aeed652b81b744fa79f14aba19) #28
  unreachable

bb2989:                                           ; preds = %bb2982
  br label %bb2990

bb2983:                                           ; preds = %bb2982
  %_7208 = load i64, ptr %j59, align 8, !noundef !3
  %_7209 = load i64, ptr %i47, align 8, !noundef !3
  %_7207 = add i64 %_7208, %_7209
  %_7206 = urem i64 %_7207, 4
  %_7211 = icmp ult i64 %_7206, 4
  br i1 %_7211, label %bb2985, label %panic237

bb2990:                                           ; preds = %bb2988, %bb2989
  %299 = load i64, ptr %j59, align 8, !noundef !3
  %300 = add i64 %299, 1
  store i64 %300, ptr %j59, align 8
  %_7222 = load i64, ptr %j59, align 8, !noundef !3
  %_7221 = icmp ult i64 %_7222, 4
  br i1 %_7221, label %bb2991, label %bb2997

bb2985:                                           ; preds = %bb2983
  %301 = getelementptr inbounds nuw i64, ptr %r, i64 %_7206
  %_7205 = load i64, ptr %301, align 8, !noundef !3
  call void @llvm.lifetime.start.p0(ptr %_16326)
  call void @llvm.memcpy.p0.p0.i64(ptr align 8 %_7213, ptr align 8 @alloc_4ac3c5d41a46e3ab32675db08dd7fc71, i64 32, i1 false)
  call void @llvm.memcpy.p0.p0.i64(ptr align 8 %_16326, ptr align 8 %_7213, i64 32, i1 false)
  %_7214 = load i64, ptr %j59, align 8, !noundef !3
  %_7215 = icmp ult i64 %_7214, 4
  br i1 %_7215, label %bb2986, label %panic238

panic237:                                         ; preds = %bb2983
; call core::panicking::panic_bounds_check
  call void @_RNvNtCs8OG1GeFZzXY_4core9panicking18panic_bounds_check(i64 noundef %_7206, i64 noundef 4, ptr noalias noundef readonly align 8 captures(address, read_provenance) dereferenceable(24) @alloc_318a8e9150e07c5cbdd12b81bfa85a33) #28
  unreachable

bb2986:                                           ; preds = %bb2985
  %302 = getelementptr inbounds nuw i64, ptr %_16326, i64 %_7214
  %_7212 = load i64, ptr %302, align 8, !noundef !3
  %_14303 = zext i64 %_7205 to i128
  %_14307 = zext i64 %_7212 to i128
  %_14304 = mul i128 %_14139, %_14307
  %_14302 = add i128 %_14303, %_14304
  %303 = load i64, ptr %carry56, align 8, !noundef !3
  %_14305 = zext i64 %303 to i128
  %_14301 = add i128 %_14302, %_14305
  %_14306 = lshr i128 %_14301, 64
  %304 = trunc i128 %_14306 to i64
  store i64 %304, ptr %carry56, align 8
  %_7204 = trunc i128 %_14301 to i64
  %_7218 = load i64, ptr %j59, align 8, !noundef !3
  %_7219 = load i64, ptr %i47, align 8, !noundef !3
  %_7217 = add i64 %_7218, %_7219
  %_7216 = urem i64 %_7217, 4
  %_7220 = icmp ult i64 %_7216, 4
  br i1 %_7220, label %bb2988, label %panic239

panic238:                                         ; preds = %bb2985
; call core::panicking::panic_bounds_check
  call void @_RNvNtCs8OG1GeFZzXY_4core9panicking18panic_bounds_check(i64 noundef %_7214, i64 noundef 4, ptr noalias noundef readonly align 8 captures(address, read_provenance) dereferenceable(24) @alloc_41d98e10d851b9e3632a1b50dd5ef0a8) #28
  unreachable

bb2988:                                           ; preds = %bb2986
  %305 = getelementptr inbounds nuw i64, ptr %r, i64 %_7216
  store i64 %_7204, ptr %305, align 8
  call void @llvm.lifetime.end.p0(ptr %_16326)
  br label %bb2990

panic239:                                         ; preds = %bb2986
; call core::panicking::panic_bounds_check
  call void @_RNvNtCs8OG1GeFZzXY_4core9panicking18panic_bounds_check(i64 noundef %_7216, i64 noundef 4, ptr noalias noundef readonly align 8 captures(address, read_provenance) dereferenceable(24) @alloc_3736e7aeed652b81b744fa79f14aba19) #28
  unreachable

bb2997:                                           ; preds = %bb2990
  br label %bb2998

bb2991:                                           ; preds = %bb2990
  %_7227 = load i64, ptr %j59, align 8, !noundef !3
  %_7228 = load i64, ptr %i47, align 8, !noundef !3
  %_7226 = add i64 %_7227, %_7228
  %_7225 = urem i64 %_7226, 4
  %_7230 = icmp ult i64 %_7225, 4
  br i1 %_7230, label %bb2993, label %panic240

bb2998:                                           ; preds = %bb2996, %bb2997
  %306 = load i64, ptr %j59, align 8, !noundef !3
  %307 = add i64 %306, 1
  store i64 %307, ptr %j59, align 8
  call void @llvm.lifetime.end.p0(ptr %j59)
  %_7240 = load i64, ptr %i47, align 8, !noundef !3
  %_7241 = icmp ult i64 %_7240, 4
  br i1 %_7241, label %bb2999, label %panic243

bb2993:                                           ; preds = %bb2991
  %308 = getelementptr inbounds nuw i64, ptr %r, i64 %_7225
  %_7224 = load i64, ptr %308, align 8, !noundef !3
  call void @llvm.lifetime.start.p0(ptr %_16327)
  call void @llvm.memcpy.p0.p0.i64(ptr align 8 %_7232, ptr align 8 @alloc_4ac3c5d41a46e3ab32675db08dd7fc71, i64 32, i1 false)
  call void @llvm.memcpy.p0.p0.i64(ptr align 8 %_16327, ptr align 8 %_7232, i64 32, i1 false)
  %_7233 = load i64, ptr %j59, align 8, !noundef !3
  %_7234 = icmp ult i64 %_7233, 4
  br i1 %_7234, label %bb2994, label %panic241

panic240:                                         ; preds = %bb2991
; call core::panicking::panic_bounds_check
  call void @_RNvNtCs8OG1GeFZzXY_4core9panicking18panic_bounds_check(i64 noundef %_7225, i64 noundef 4, ptr noalias noundef readonly align 8 captures(address, read_provenance) dereferenceable(24) @alloc_318a8e9150e07c5cbdd12b81bfa85a33) #28
  unreachable

bb2994:                                           ; preds = %bb2993
  %309 = getelementptr inbounds nuw i64, ptr %_16327, i64 %_7233
  %_7231 = load i64, ptr %309, align 8, !noundef !3
  %_14310 = zext i64 %_7224 to i128
  %_14314 = zext i64 %_7231 to i128
  %_14311 = mul i128 %_14139, %_14314
  %_14309 = add i128 %_14310, %_14311
  %310 = load i64, ptr %carry56, align 8, !noundef !3
  %_14312 = zext i64 %310 to i128
  %_14308 = add i128 %_14309, %_14312
  %_14313 = lshr i128 %_14308, 64
  %311 = trunc i128 %_14313 to i64
  store i64 %311, ptr %carry56, align 8
  %_7223 = trunc i128 %_14308 to i64
  %_7237 = load i64, ptr %j59, align 8, !noundef !3
  %_7238 = load i64, ptr %i47, align 8, !noundef !3
  %_7236 = add i64 %_7237, %_7238
  %_7235 = urem i64 %_7236, 4
  %_7239 = icmp ult i64 %_7235, 4
  br i1 %_7239, label %bb2996, label %panic242

panic241:                                         ; preds = %bb2993
; call core::panicking::panic_bounds_check
  call void @_RNvNtCs8OG1GeFZzXY_4core9panicking18panic_bounds_check(i64 noundef %_7233, i64 noundef 4, ptr noalias noundef readonly align 8 captures(address, read_provenance) dereferenceable(24) @alloc_41d98e10d851b9e3632a1b50dd5ef0a8) #28
  unreachable

bb2996:                                           ; preds = %bb2994
  %312 = getelementptr inbounds nuw i64, ptr %r, i64 %_7235
  store i64 %_7223, ptr %312, align 8
  call void @llvm.lifetime.end.p0(ptr %_16327)
  br label %bb2998

panic242:                                         ; preds = %bb2994
; call core::panicking::panic_bounds_check
  call void @_RNvNtCs8OG1GeFZzXY_4core9panicking18panic_bounds_check(i64 noundef %_7235, i64 noundef 4, ptr noalias noundef readonly align 8 captures(address, read_provenance) dereferenceable(24) @alloc_3736e7aeed652b81b744fa79f14aba19) #28
  unreachable

bb2999:                                           ; preds = %bb2998
  %313 = getelementptr inbounds nuw i64, ptr %r, i64 %_7240
  %314 = load i64, ptr %carry56, align 8, !noundef !3
  store i64 %314, ptr %313, align 8
  br label %bb3001

panic243:                                         ; preds = %bb2998
; call core::panicking::panic_bounds_check
  call void @_RNvNtCs8OG1GeFZzXY_4core9panicking18panic_bounds_check(i64 noundef %_7240, i64 noundef 4, ptr noalias noundef readonly align 8 captures(address, read_provenance) dereferenceable(24) @alloc_e07dad0bc349823f26226a80bb150e8a) #28
  unreachable

bb3200:                                           ; preds = %bb3001
  br label %bb3201

bb3002:                                           ; preds = %bb3001
  %_7246 = load i64, ptr %i47, align 8, !noundef !3
  %_7247 = icmp ult i64 %_7246, 4
  br i1 %_7247, label %bb3003, label %panic244

bb3201:                                           ; preds = %bb3199, %bb3200
  %315 = load i64, ptr %i47, align 8, !noundef !3
  %316 = add i64 %315, 1
  store i64 %316, ptr %i47, align 8
  %_7725 = load i64, ptr %i47, align 8, !noundef !3
  %_7724 = icmp ult i64 %_7725, 4
  br i1 %_7724, label %bb3202, label %bb3400

bb3003:                                           ; preds = %bb3002
  %317 = getelementptr inbounds nuw i64, ptr %r, i64 %_7246
  %_7245 = load i64, ptr %317, align 8, !noundef !3
  %k245 = mul i64 %_7245, -8659850874718887031
  store i64 0, ptr %carry60, align 8
  %_7250 = load i64, ptr %i47, align 8, !noundef !3
  %_7251 = icmp ult i64 %_7250, 4
  br i1 %_7251, label %bb3004, label %panic246

panic244:                                         ; preds = %bb3002
; call core::panicking::panic_bounds_check
  call void @_RNvNtCs8OG1GeFZzXY_4core9panicking18panic_bounds_check(i64 noundef %_7246, i64 noundef 4, ptr noalias noundef readonly align 8 captures(address, read_provenance) dereferenceable(24) @alloc_ffde8619649764ddfa94b9917826fa38) #28
  unreachable

bb3004:                                           ; preds = %bb3003
  %318 = getelementptr inbounds nuw i64, ptr %r, i64 %_7250
  %_7249 = load i64, ptr %318, align 8, !noundef !3
  call void @llvm.lifetime.start.p0(ptr %_16328)
  call void @llvm.memcpy.p0.p0.i64(ptr align 8 %_7253, ptr align 8 @alloc_4ac3c5d41a46e3ab32675db08dd7fc71, i64 32, i1 false)
  call void @llvm.memcpy.p0.p0.i64(ptr align 8 %_16328, ptr align 8 %_7253, i64 32, i1 false)
  %319 = getelementptr inbounds nuw i64, ptr %_16328, i64 0
  %_7252 = load i64, ptr %319, align 8, !noundef !3
  %_14317 = zext i64 %_7249 to i128
  %_14321 = zext i64 %k245 to i128
  %_14322 = zext i64 %_7252 to i128
  %_14318 = mul i128 %_14321, %_14322
  %_14316 = add i128 %_14317, %_14318
  %320 = load i64, ptr %carry60, align 8, !noundef !3
  %_14319 = zext i64 %320 to i128
  %_14315 = add i128 %_14316, %_14319
  %_14320 = lshr i128 %_14315, 64
  %321 = trunc i128 %_14320 to i64
  store i64 %321, ptr %carry60, align 8
  call void @llvm.lifetime.end.p0(ptr %_16328)
  call void @llvm.lifetime.start.p0(ptr %_7256)
  br label %bb4883

panic246:                                         ; preds = %bb3003
; call core::panicking::panic_bounds_check
  call void @_RNvNtCs8OG1GeFZzXY_4core9panicking18panic_bounds_check(i64 noundef %_7250, i64 noundef 4, ptr noalias noundef readonly align 8 captures(address, read_provenance) dereferenceable(24) @alloc_b6d549c2b3ce344d3ee993619e732d16) #28
  unreachable

bb4883:                                           ; preds = %bb3004
  %322 = getelementptr inbounds i8, ptr %_7256, i64 8
  store i64 3, ptr %322, align 8
  store i64 1, ptr %_7256, align 8
  %323 = getelementptr inbounds i8, ptr %_7256, i64 8
  %324 = load i64, ptr %323, align 8, !noundef !3
  store i64 %324, ptr %total_iters61, align 8
  br label %bb4884

bb4884:                                           ; preds = %bb4882, %bb4883
  call void @llvm.lifetime.end.p0(ptr %_7256)
  %_7258 = load i64, ptr %total_iters61, align 8, !noundef !3
  %num_loops247 = udiv i64 %_7258, 12
  %325 = load i64, ptr %total_iters61, align 8, !noundef !3
  %remainder248 = urem i64 %325, 12
  store i64 0, ptr %iter111, align 8
  br label %bb3006

bb4882:                                           ; No predecessors!
  store i64 0, ptr %total_iters61, align 8
  br label %bb4884

bb3006:                                           ; preds = %bb3102, %bb4884
  call void @llvm.lifetime.start.p0(ptr %_7260)
  %_14328 = load i64, ptr %iter111, align 8, !noundef !3
  %_14325 = icmp ult i64 %_14328, %num_loops247
  br i1 %_14325, label %bb4885, label %bb4886

bb4886:                                           ; preds = %bb3006
  call void @llvm.lifetime.end.p0(ptr %_7260)
  call void @llvm.lifetime.start.p0(ptr %j63)
  %_7493 = mul i64 %num_loops247, 12
  %326 = add i64 1, %_7493
  store i64 %326, ptr %j63, align 8
  %_7495 = load i64, ptr %j63, align 8, !noundef !3
  %_7494 = icmp ult i64 %_7495, 4
  br i1 %_7494, label %bb3103, label %bb3104

bb4885:                                           ; preds = %bb3006
  %_14326 = load i64, ptr %iter111, align 8, !noundef !3
  %327 = add nuw i64 %_14326, 1
  store i64 %327, ptr %iter111, align 8
  %328 = getelementptr inbounds i8, ptr %_7260, i64 8
  store i64 %_14326, ptr %328, align 8
  store i64 1, ptr %_7260, align 8
  %329 = getelementptr inbounds i8, ptr %_7260, i64 8
  %j918 = load i64, ptr %329, align 8, !noundef !3
  call void @llvm.lifetime.start.p0(ptr %j62)
  %_7263 = mul i64 %j918, 12
  %330 = add i64 1, %_7263
  store i64 %330, ptr %j62, align 8
  %_7265 = load i64, ptr %j62, align 8, !noundef !3
  %_7264 = icmp ult i64 %_7265, 4
  br i1 %_7264, label %bb3007, label %bb3013

bb3104:                                           ; preds = %bb4886
  br label %bb3110

bb3103:                                           ; preds = %bb4886
  %_7500 = load i64, ptr %j63, align 8, !noundef !3
  %_7501 = load i64, ptr %i47, align 8, !noundef !3
  %_7499 = add i64 %_7500, %_7501
  %_7498 = urem i64 %_7499, 4
  %_7503 = icmp ult i64 %_7498, 4
  br i1 %_7503, label %bb3106, label %panic249

bb3110:                                           ; preds = %bb3109, %bb3104
  %331 = load i64, ptr %j63, align 8, !noundef !3
  %332 = add i64 %331, 1
  store i64 %332, ptr %j63, align 8
  %_7514 = load i64, ptr %j63, align 8, !noundef !3
  %_7513 = icmp ult i64 %_7514, 4
  br i1 %_7513, label %bb3111, label %bb3117

bb3106:                                           ; preds = %bb3103
  %333 = getelementptr inbounds nuw i64, ptr %r, i64 %_7498
  %_7497 = load i64, ptr %333, align 8, !noundef !3
  call void @llvm.lifetime.start.p0(ptr %_16341)
  call void @llvm.memcpy.p0.p0.i64(ptr align 8 %_7505, ptr align 8 @alloc_4ac3c5d41a46e3ab32675db08dd7fc71, i64 32, i1 false)
  call void @llvm.memcpy.p0.p0.i64(ptr align 8 %_16341, ptr align 8 %_7505, i64 32, i1 false)
  %_7506 = load i64, ptr %j63, align 8, !noundef !3
  %_7507 = icmp ult i64 %_7506, 4
  br i1 %_7507, label %bb3107, label %panic250

panic249:                                         ; preds = %bb3103
; call core::panicking::panic_bounds_check
  call void @_RNvNtCs8OG1GeFZzXY_4core9panicking18panic_bounds_check(i64 noundef %_7498, i64 noundef 4, ptr noalias noundef readonly align 8 captures(address, read_provenance) dereferenceable(24) @alloc_318a8e9150e07c5cbdd12b81bfa85a33) #28
  unreachable

bb3107:                                           ; preds = %bb3106
  %334 = getelementptr inbounds nuw i64, ptr %_16341, i64 %_7506
  %_7504 = load i64, ptr %334, align 8, !noundef !3
  %_14415 = zext i64 %_7497 to i128
  %_14419 = zext i64 %_7504 to i128
  %_14416 = mul i128 %_14321, %_14419
  %_14414 = add i128 %_14415, %_14416
  %335 = load i64, ptr %carry60, align 8, !noundef !3
  %_14417 = zext i64 %335 to i128
  %_14413 = add i128 %_14414, %_14417
  %_14418 = lshr i128 %_14413, 64
  %336 = trunc i128 %_14418 to i64
  store i64 %336, ptr %carry60, align 8
  %_7496 = trunc i128 %_14413 to i64
  %_7510 = load i64, ptr %j63, align 8, !noundef !3
  %_7511 = load i64, ptr %i47, align 8, !noundef !3
  %_7509 = add i64 %_7510, %_7511
  %_7508 = urem i64 %_7509, 4
  %_7512 = icmp ult i64 %_7508, 4
  br i1 %_7512, label %bb3109, label %panic251

panic250:                                         ; preds = %bb3106
; call core::panicking::panic_bounds_check
  call void @_RNvNtCs8OG1GeFZzXY_4core9panicking18panic_bounds_check(i64 noundef %_7506, i64 noundef 4, ptr noalias noundef readonly align 8 captures(address, read_provenance) dereferenceable(24) @alloc_41d98e10d851b9e3632a1b50dd5ef0a8) #28
  unreachable

bb3109:                                           ; preds = %bb3107
  %337 = getelementptr inbounds nuw i64, ptr %r, i64 %_7508
  store i64 %_7496, ptr %337, align 8
  call void @llvm.lifetime.end.p0(ptr %_16341)
  br label %bb3110

panic251:                                         ; preds = %bb3107
; call core::panicking::panic_bounds_check
  call void @_RNvNtCs8OG1GeFZzXY_4core9panicking18panic_bounds_check(i64 noundef %_7508, i64 noundef 4, ptr noalias noundef readonly align 8 captures(address, read_provenance) dereferenceable(24) @alloc_3736e7aeed652b81b744fa79f14aba19) #28
  unreachable

bb3117:                                           ; preds = %bb3110
  br label %bb3118

bb3111:                                           ; preds = %bb3110
  %_7519 = load i64, ptr %j63, align 8, !noundef !3
  %_7520 = load i64, ptr %i47, align 8, !noundef !3
  %_7518 = add i64 %_7519, %_7520
  %_7517 = urem i64 %_7518, 4
  %_7522 = icmp ult i64 %_7517, 4
  br i1 %_7522, label %bb3113, label %panic252

bb3118:                                           ; preds = %bb3116, %bb3117
  %338 = load i64, ptr %j63, align 8, !noundef !3
  %339 = add i64 %338, 1
  store i64 %339, ptr %j63, align 8
  %_7533 = load i64, ptr %j63, align 8, !noundef !3
  %_7532 = icmp ult i64 %_7533, 4
  br i1 %_7532, label %bb3119, label %bb3125

bb3113:                                           ; preds = %bb3111
  %340 = getelementptr inbounds nuw i64, ptr %r, i64 %_7517
  %_7516 = load i64, ptr %340, align 8, !noundef !3
  call void @llvm.lifetime.start.p0(ptr %_16342)
  call void @llvm.memcpy.p0.p0.i64(ptr align 8 %_7524, ptr align 8 @alloc_4ac3c5d41a46e3ab32675db08dd7fc71, i64 32, i1 false)
  call void @llvm.memcpy.p0.p0.i64(ptr align 8 %_16342, ptr align 8 %_7524, i64 32, i1 false)
  %_7525 = load i64, ptr %j63, align 8, !noundef !3
  %_7526 = icmp ult i64 %_7525, 4
  br i1 %_7526, label %bb3114, label %panic253

panic252:                                         ; preds = %bb3111
; call core::panicking::panic_bounds_check
  call void @_RNvNtCs8OG1GeFZzXY_4core9panicking18panic_bounds_check(i64 noundef %_7517, i64 noundef 4, ptr noalias noundef readonly align 8 captures(address, read_provenance) dereferenceable(24) @alloc_318a8e9150e07c5cbdd12b81bfa85a33) #28
  unreachable

bb3114:                                           ; preds = %bb3113
  %341 = getelementptr inbounds nuw i64, ptr %_16342, i64 %_7525
  %_7523 = load i64, ptr %341, align 8, !noundef !3
  %_14422 = zext i64 %_7516 to i128
  %_14426 = zext i64 %_7523 to i128
  %_14423 = mul i128 %_14321, %_14426
  %_14421 = add i128 %_14422, %_14423
  %342 = load i64, ptr %carry60, align 8, !noundef !3
  %_14424 = zext i64 %342 to i128
  %_14420 = add i128 %_14421, %_14424
  %_14425 = lshr i128 %_14420, 64
  %343 = trunc i128 %_14425 to i64
  store i64 %343, ptr %carry60, align 8
  %_7515 = trunc i128 %_14420 to i64
  %_7529 = load i64, ptr %j63, align 8, !noundef !3
  %_7530 = load i64, ptr %i47, align 8, !noundef !3
  %_7528 = add i64 %_7529, %_7530
  %_7527 = urem i64 %_7528, 4
  %_7531 = icmp ult i64 %_7527, 4
  br i1 %_7531, label %bb3116, label %panic254

panic253:                                         ; preds = %bb3113
; call core::panicking::panic_bounds_check
  call void @_RNvNtCs8OG1GeFZzXY_4core9panicking18panic_bounds_check(i64 noundef %_7525, i64 noundef 4, ptr noalias noundef readonly align 8 captures(address, read_provenance) dereferenceable(24) @alloc_41d98e10d851b9e3632a1b50dd5ef0a8) #28
  unreachable

bb3116:                                           ; preds = %bb3114
  %344 = getelementptr inbounds nuw i64, ptr %r, i64 %_7527
  store i64 %_7515, ptr %344, align 8
  call void @llvm.lifetime.end.p0(ptr %_16342)
  br label %bb3118

panic254:                                         ; preds = %bb3114
; call core::panicking::panic_bounds_check
  call void @_RNvNtCs8OG1GeFZzXY_4core9panicking18panic_bounds_check(i64 noundef %_7527, i64 noundef 4, ptr noalias noundef readonly align 8 captures(address, read_provenance) dereferenceable(24) @alloc_3736e7aeed652b81b744fa79f14aba19) #28
  unreachable

bb3125:                                           ; preds = %bb3118
  br label %bb3126

bb3119:                                           ; preds = %bb3118
  %_7538 = load i64, ptr %j63, align 8, !noundef !3
  %_7539 = load i64, ptr %i47, align 8, !noundef !3
  %_7537 = add i64 %_7538, %_7539
  %_7536 = urem i64 %_7537, 4
  %_7541 = icmp ult i64 %_7536, 4
  br i1 %_7541, label %bb3121, label %panic255

bb3126:                                           ; preds = %bb3124, %bb3125
  %345 = load i64, ptr %j63, align 8, !noundef !3
  %346 = add i64 %345, 1
  store i64 %346, ptr %j63, align 8
  %_7552 = load i64, ptr %j63, align 8, !noundef !3
  %_7551 = icmp ult i64 %_7552, 4
  br i1 %_7551, label %bb3127, label %bb3133

bb3121:                                           ; preds = %bb3119
  %347 = getelementptr inbounds nuw i64, ptr %r, i64 %_7536
  %_7535 = load i64, ptr %347, align 8, !noundef !3
  call void @llvm.lifetime.start.p0(ptr %_16343)
  call void @llvm.memcpy.p0.p0.i64(ptr align 8 %_7543, ptr align 8 @alloc_4ac3c5d41a46e3ab32675db08dd7fc71, i64 32, i1 false)
  call void @llvm.memcpy.p0.p0.i64(ptr align 8 %_16343, ptr align 8 %_7543, i64 32, i1 false)
  %_7544 = load i64, ptr %j63, align 8, !noundef !3
  %_7545 = icmp ult i64 %_7544, 4
  br i1 %_7545, label %bb3122, label %panic256

panic255:                                         ; preds = %bb3119
; call core::panicking::panic_bounds_check
  call void @_RNvNtCs8OG1GeFZzXY_4core9panicking18panic_bounds_check(i64 noundef %_7536, i64 noundef 4, ptr noalias noundef readonly align 8 captures(address, read_provenance) dereferenceable(24) @alloc_318a8e9150e07c5cbdd12b81bfa85a33) #28
  unreachable

bb3122:                                           ; preds = %bb3121
  %348 = getelementptr inbounds nuw i64, ptr %_16343, i64 %_7544
  %_7542 = load i64, ptr %348, align 8, !noundef !3
  %_14429 = zext i64 %_7535 to i128
  %_14433 = zext i64 %_7542 to i128
  %_14430 = mul i128 %_14321, %_14433
  %_14428 = add i128 %_14429, %_14430
  %349 = load i64, ptr %carry60, align 8, !noundef !3
  %_14431 = zext i64 %349 to i128
  %_14427 = add i128 %_14428, %_14431
  %_14432 = lshr i128 %_14427, 64
  %350 = trunc i128 %_14432 to i64
  store i64 %350, ptr %carry60, align 8
  %_7534 = trunc i128 %_14427 to i64
  %_7548 = load i64, ptr %j63, align 8, !noundef !3
  %_7549 = load i64, ptr %i47, align 8, !noundef !3
  %_7547 = add i64 %_7548, %_7549
  %_7546 = urem i64 %_7547, 4
  %_7550 = icmp ult i64 %_7546, 4
  br i1 %_7550, label %bb3124, label %panic257

panic256:                                         ; preds = %bb3121
; call core::panicking::panic_bounds_check
  call void @_RNvNtCs8OG1GeFZzXY_4core9panicking18panic_bounds_check(i64 noundef %_7544, i64 noundef 4, ptr noalias noundef readonly align 8 captures(address, read_provenance) dereferenceable(24) @alloc_41d98e10d851b9e3632a1b50dd5ef0a8) #28
  unreachable

bb3124:                                           ; preds = %bb3122
  %351 = getelementptr inbounds nuw i64, ptr %r, i64 %_7546
  store i64 %_7534, ptr %351, align 8
  call void @llvm.lifetime.end.p0(ptr %_16343)
  br label %bb3126

panic257:                                         ; preds = %bb3122
; call core::panicking::panic_bounds_check
  call void @_RNvNtCs8OG1GeFZzXY_4core9panicking18panic_bounds_check(i64 noundef %_7546, i64 noundef 4, ptr noalias noundef readonly align 8 captures(address, read_provenance) dereferenceable(24) @alloc_3736e7aeed652b81b744fa79f14aba19) #28
  unreachable

bb3133:                                           ; preds = %bb3126
  br label %bb3134

bb3127:                                           ; preds = %bb3126
  %_7557 = load i64, ptr %j63, align 8, !noundef !3
  %_7558 = load i64, ptr %i47, align 8, !noundef !3
  %_7556 = add i64 %_7557, %_7558
  %_7555 = urem i64 %_7556, 4
  %_7560 = icmp ult i64 %_7555, 4
  br i1 %_7560, label %bb3129, label %panic258

bb3134:                                           ; preds = %bb3132, %bb3133
  %352 = load i64, ptr %j63, align 8, !noundef !3
  %353 = add i64 %352, 1
  store i64 %353, ptr %j63, align 8
  %_7571 = load i64, ptr %j63, align 8, !noundef !3
  %_7570 = icmp ult i64 %_7571, 4
  br i1 %_7570, label %bb3135, label %bb3141

bb3129:                                           ; preds = %bb3127
  %354 = getelementptr inbounds nuw i64, ptr %r, i64 %_7555
  %_7554 = load i64, ptr %354, align 8, !noundef !3
  call void @llvm.lifetime.start.p0(ptr %_16344)
  call void @llvm.memcpy.p0.p0.i64(ptr align 8 %_7562, ptr align 8 @alloc_4ac3c5d41a46e3ab32675db08dd7fc71, i64 32, i1 false)
  call void @llvm.memcpy.p0.p0.i64(ptr align 8 %_16344, ptr align 8 %_7562, i64 32, i1 false)
  %_7563 = load i64, ptr %j63, align 8, !noundef !3
  %_7564 = icmp ult i64 %_7563, 4
  br i1 %_7564, label %bb3130, label %panic259

panic258:                                         ; preds = %bb3127
; call core::panicking::panic_bounds_check
  call void @_RNvNtCs8OG1GeFZzXY_4core9panicking18panic_bounds_check(i64 noundef %_7555, i64 noundef 4, ptr noalias noundef readonly align 8 captures(address, read_provenance) dereferenceable(24) @alloc_318a8e9150e07c5cbdd12b81bfa85a33) #28
  unreachable

bb3130:                                           ; preds = %bb3129
  %355 = getelementptr inbounds nuw i64, ptr %_16344, i64 %_7563
  %_7561 = load i64, ptr %355, align 8, !noundef !3
  %_14436 = zext i64 %_7554 to i128
  %_14440 = zext i64 %_7561 to i128
  %_14437 = mul i128 %_14321, %_14440
  %_14435 = add i128 %_14436, %_14437
  %356 = load i64, ptr %carry60, align 8, !noundef !3
  %_14438 = zext i64 %356 to i128
  %_14434 = add i128 %_14435, %_14438
  %_14439 = lshr i128 %_14434, 64
  %357 = trunc i128 %_14439 to i64
  store i64 %357, ptr %carry60, align 8
  %_7553 = trunc i128 %_14434 to i64
  %_7567 = load i64, ptr %j63, align 8, !noundef !3
  %_7568 = load i64, ptr %i47, align 8, !noundef !3
  %_7566 = add i64 %_7567, %_7568
  %_7565 = urem i64 %_7566, 4
  %_7569 = icmp ult i64 %_7565, 4
  br i1 %_7569, label %bb3132, label %panic260

panic259:                                         ; preds = %bb3129
; call core::panicking::panic_bounds_check
  call void @_RNvNtCs8OG1GeFZzXY_4core9panicking18panic_bounds_check(i64 noundef %_7563, i64 noundef 4, ptr noalias noundef readonly align 8 captures(address, read_provenance) dereferenceable(24) @alloc_41d98e10d851b9e3632a1b50dd5ef0a8) #28
  unreachable

bb3132:                                           ; preds = %bb3130
  %358 = getelementptr inbounds nuw i64, ptr %r, i64 %_7565
  store i64 %_7553, ptr %358, align 8
  call void @llvm.lifetime.end.p0(ptr %_16344)
  br label %bb3134

panic260:                                         ; preds = %bb3130
; call core::panicking::panic_bounds_check
  call void @_RNvNtCs8OG1GeFZzXY_4core9panicking18panic_bounds_check(i64 noundef %_7565, i64 noundef 4, ptr noalias noundef readonly align 8 captures(address, read_provenance) dereferenceable(24) @alloc_3736e7aeed652b81b744fa79f14aba19) #28
  unreachable

bb3141:                                           ; preds = %bb3134
  br label %bb3142

bb3135:                                           ; preds = %bb3134
  %_7576 = load i64, ptr %j63, align 8, !noundef !3
  %_7577 = load i64, ptr %i47, align 8, !noundef !3
  %_7575 = add i64 %_7576, %_7577
  %_7574 = urem i64 %_7575, 4
  %_7579 = icmp ult i64 %_7574, 4
  br i1 %_7579, label %bb3137, label %panic261

bb3142:                                           ; preds = %bb3140, %bb3141
  %359 = load i64, ptr %j63, align 8, !noundef !3
  %360 = add i64 %359, 1
  store i64 %360, ptr %j63, align 8
  %_7590 = load i64, ptr %j63, align 8, !noundef !3
  %_7589 = icmp ult i64 %_7590, 4
  br i1 %_7589, label %bb3143, label %bb3149

bb3137:                                           ; preds = %bb3135
  %361 = getelementptr inbounds nuw i64, ptr %r, i64 %_7574
  %_7573 = load i64, ptr %361, align 8, !noundef !3
  call void @llvm.lifetime.start.p0(ptr %_16345)
  call void @llvm.memcpy.p0.p0.i64(ptr align 8 %_7581, ptr align 8 @alloc_4ac3c5d41a46e3ab32675db08dd7fc71, i64 32, i1 false)
  call void @llvm.memcpy.p0.p0.i64(ptr align 8 %_16345, ptr align 8 %_7581, i64 32, i1 false)
  %_7582 = load i64, ptr %j63, align 8, !noundef !3
  %_7583 = icmp ult i64 %_7582, 4
  br i1 %_7583, label %bb3138, label %panic262

panic261:                                         ; preds = %bb3135
; call core::panicking::panic_bounds_check
  call void @_RNvNtCs8OG1GeFZzXY_4core9panicking18panic_bounds_check(i64 noundef %_7574, i64 noundef 4, ptr noalias noundef readonly align 8 captures(address, read_provenance) dereferenceable(24) @alloc_318a8e9150e07c5cbdd12b81bfa85a33) #28
  unreachable

bb3138:                                           ; preds = %bb3137
  %362 = getelementptr inbounds nuw i64, ptr %_16345, i64 %_7582
  %_7580 = load i64, ptr %362, align 8, !noundef !3
  %_14443 = zext i64 %_7573 to i128
  %_14447 = zext i64 %_7580 to i128
  %_14444 = mul i128 %_14321, %_14447
  %_14442 = add i128 %_14443, %_14444
  %363 = load i64, ptr %carry60, align 8, !noundef !3
  %_14445 = zext i64 %363 to i128
  %_14441 = add i128 %_14442, %_14445
  %_14446 = lshr i128 %_14441, 64
  %364 = trunc i128 %_14446 to i64
  store i64 %364, ptr %carry60, align 8
  %_7572 = trunc i128 %_14441 to i64
  %_7586 = load i64, ptr %j63, align 8, !noundef !3
  %_7587 = load i64, ptr %i47, align 8, !noundef !3
  %_7585 = add i64 %_7586, %_7587
  %_7584 = urem i64 %_7585, 4
  %_7588 = icmp ult i64 %_7584, 4
  br i1 %_7588, label %bb3140, label %panic263

panic262:                                         ; preds = %bb3137
; call core::panicking::panic_bounds_check
  call void @_RNvNtCs8OG1GeFZzXY_4core9panicking18panic_bounds_check(i64 noundef %_7582, i64 noundef 4, ptr noalias noundef readonly align 8 captures(address, read_provenance) dereferenceable(24) @alloc_41d98e10d851b9e3632a1b50dd5ef0a8) #28
  unreachable

bb3140:                                           ; preds = %bb3138
  %365 = getelementptr inbounds nuw i64, ptr %r, i64 %_7584
  store i64 %_7572, ptr %365, align 8
  call void @llvm.lifetime.end.p0(ptr %_16345)
  br label %bb3142

panic263:                                         ; preds = %bb3138
; call core::panicking::panic_bounds_check
  call void @_RNvNtCs8OG1GeFZzXY_4core9panicking18panic_bounds_check(i64 noundef %_7584, i64 noundef 4, ptr noalias noundef readonly align 8 captures(address, read_provenance) dereferenceable(24) @alloc_3736e7aeed652b81b744fa79f14aba19) #28
  unreachable

bb3149:                                           ; preds = %bb3142
  br label %bb3150

bb3143:                                           ; preds = %bb3142
  %_7595 = load i64, ptr %j63, align 8, !noundef !3
  %_7596 = load i64, ptr %i47, align 8, !noundef !3
  %_7594 = add i64 %_7595, %_7596
  %_7593 = urem i64 %_7594, 4
  %_7598 = icmp ult i64 %_7593, 4
  br i1 %_7598, label %bb3145, label %panic264

bb3150:                                           ; preds = %bb3148, %bb3149
  %366 = load i64, ptr %j63, align 8, !noundef !3
  %367 = add i64 %366, 1
  store i64 %367, ptr %j63, align 8
  %_7609 = load i64, ptr %j63, align 8, !noundef !3
  %_7608 = icmp ult i64 %_7609, 4
  br i1 %_7608, label %bb3151, label %bb3157

bb3145:                                           ; preds = %bb3143
  %368 = getelementptr inbounds nuw i64, ptr %r, i64 %_7593
  %_7592 = load i64, ptr %368, align 8, !noundef !3
  call void @llvm.lifetime.start.p0(ptr %_16346)
  call void @llvm.memcpy.p0.p0.i64(ptr align 8 %_7600, ptr align 8 @alloc_4ac3c5d41a46e3ab32675db08dd7fc71, i64 32, i1 false)
  call void @llvm.memcpy.p0.p0.i64(ptr align 8 %_16346, ptr align 8 %_7600, i64 32, i1 false)
  %_7601 = load i64, ptr %j63, align 8, !noundef !3
  %_7602 = icmp ult i64 %_7601, 4
  br i1 %_7602, label %bb3146, label %panic265

panic264:                                         ; preds = %bb3143
; call core::panicking::panic_bounds_check
  call void @_RNvNtCs8OG1GeFZzXY_4core9panicking18panic_bounds_check(i64 noundef %_7593, i64 noundef 4, ptr noalias noundef readonly align 8 captures(address, read_provenance) dereferenceable(24) @alloc_318a8e9150e07c5cbdd12b81bfa85a33) #28
  unreachable

bb3146:                                           ; preds = %bb3145
  %369 = getelementptr inbounds nuw i64, ptr %_16346, i64 %_7601
  %_7599 = load i64, ptr %369, align 8, !noundef !3
  %_14450 = zext i64 %_7592 to i128
  %_14454 = zext i64 %_7599 to i128
  %_14451 = mul i128 %_14321, %_14454
  %_14449 = add i128 %_14450, %_14451
  %370 = load i64, ptr %carry60, align 8, !noundef !3
  %_14452 = zext i64 %370 to i128
  %_14448 = add i128 %_14449, %_14452
  %_14453 = lshr i128 %_14448, 64
  %371 = trunc i128 %_14453 to i64
  store i64 %371, ptr %carry60, align 8
  %_7591 = trunc i128 %_14448 to i64
  %_7605 = load i64, ptr %j63, align 8, !noundef !3
  %_7606 = load i64, ptr %i47, align 8, !noundef !3
  %_7604 = add i64 %_7605, %_7606
  %_7603 = urem i64 %_7604, 4
  %_7607 = icmp ult i64 %_7603, 4
  br i1 %_7607, label %bb3148, label %panic266

panic265:                                         ; preds = %bb3145
; call core::panicking::panic_bounds_check
  call void @_RNvNtCs8OG1GeFZzXY_4core9panicking18panic_bounds_check(i64 noundef %_7601, i64 noundef 4, ptr noalias noundef readonly align 8 captures(address, read_provenance) dereferenceable(24) @alloc_41d98e10d851b9e3632a1b50dd5ef0a8) #28
  unreachable

bb3148:                                           ; preds = %bb3146
  %372 = getelementptr inbounds nuw i64, ptr %r, i64 %_7603
  store i64 %_7591, ptr %372, align 8
  call void @llvm.lifetime.end.p0(ptr %_16346)
  br label %bb3150

panic266:                                         ; preds = %bb3146
; call core::panicking::panic_bounds_check
  call void @_RNvNtCs8OG1GeFZzXY_4core9panicking18panic_bounds_check(i64 noundef %_7603, i64 noundef 4, ptr noalias noundef readonly align 8 captures(address, read_provenance) dereferenceable(24) @alloc_3736e7aeed652b81b744fa79f14aba19) #28
  unreachable

bb3157:                                           ; preds = %bb3150
  br label %bb3158

bb3151:                                           ; preds = %bb3150
  %_7614 = load i64, ptr %j63, align 8, !noundef !3
  %_7615 = load i64, ptr %i47, align 8, !noundef !3
  %_7613 = add i64 %_7614, %_7615
  %_7612 = urem i64 %_7613, 4
  %_7617 = icmp ult i64 %_7612, 4
  br i1 %_7617, label %bb3153, label %panic267

bb3158:                                           ; preds = %bb3156, %bb3157
  %373 = load i64, ptr %j63, align 8, !noundef !3
  %374 = add i64 %373, 1
  store i64 %374, ptr %j63, align 8
  %_7628 = load i64, ptr %j63, align 8, !noundef !3
  %_7627 = icmp ult i64 %_7628, 4
  br i1 %_7627, label %bb3159, label %bb3165

bb3153:                                           ; preds = %bb3151
  %375 = getelementptr inbounds nuw i64, ptr %r, i64 %_7612
  %_7611 = load i64, ptr %375, align 8, !noundef !3
  call void @llvm.lifetime.start.p0(ptr %_16347)
  call void @llvm.memcpy.p0.p0.i64(ptr align 8 %_7619, ptr align 8 @alloc_4ac3c5d41a46e3ab32675db08dd7fc71, i64 32, i1 false)
  call void @llvm.memcpy.p0.p0.i64(ptr align 8 %_16347, ptr align 8 %_7619, i64 32, i1 false)
  %_7620 = load i64, ptr %j63, align 8, !noundef !3
  %_7621 = icmp ult i64 %_7620, 4
  br i1 %_7621, label %bb3154, label %panic268

panic267:                                         ; preds = %bb3151
; call core::panicking::panic_bounds_check
  call void @_RNvNtCs8OG1GeFZzXY_4core9panicking18panic_bounds_check(i64 noundef %_7612, i64 noundef 4, ptr noalias noundef readonly align 8 captures(address, read_provenance) dereferenceable(24) @alloc_318a8e9150e07c5cbdd12b81bfa85a33) #28
  unreachable

bb3154:                                           ; preds = %bb3153
  %376 = getelementptr inbounds nuw i64, ptr %_16347, i64 %_7620
  %_7618 = load i64, ptr %376, align 8, !noundef !3
  %_14457 = zext i64 %_7611 to i128
  %_14461 = zext i64 %_7618 to i128
  %_14458 = mul i128 %_14321, %_14461
  %_14456 = add i128 %_14457, %_14458
  %377 = load i64, ptr %carry60, align 8, !noundef !3
  %_14459 = zext i64 %377 to i128
  %_14455 = add i128 %_14456, %_14459
  %_14460 = lshr i128 %_14455, 64
  %378 = trunc i128 %_14460 to i64
  store i64 %378, ptr %carry60, align 8
  %_7610 = trunc i128 %_14455 to i64
  %_7624 = load i64, ptr %j63, align 8, !noundef !3
  %_7625 = load i64, ptr %i47, align 8, !noundef !3
  %_7623 = add i64 %_7624, %_7625
  %_7622 = urem i64 %_7623, 4
  %_7626 = icmp ult i64 %_7622, 4
  br i1 %_7626, label %bb3156, label %panic269

panic268:                                         ; preds = %bb3153
; call core::panicking::panic_bounds_check
  call void @_RNvNtCs8OG1GeFZzXY_4core9panicking18panic_bounds_check(i64 noundef %_7620, i64 noundef 4, ptr noalias noundef readonly align 8 captures(address, read_provenance) dereferenceable(24) @alloc_41d98e10d851b9e3632a1b50dd5ef0a8) #28
  unreachable

bb3156:                                           ; preds = %bb3154
  %379 = getelementptr inbounds nuw i64, ptr %r, i64 %_7622
  store i64 %_7610, ptr %379, align 8
  call void @llvm.lifetime.end.p0(ptr %_16347)
  br label %bb3158

panic269:                                         ; preds = %bb3154
; call core::panicking::panic_bounds_check
  call void @_RNvNtCs8OG1GeFZzXY_4core9panicking18panic_bounds_check(i64 noundef %_7622, i64 noundef 4, ptr noalias noundef readonly align 8 captures(address, read_provenance) dereferenceable(24) @alloc_3736e7aeed652b81b744fa79f14aba19) #28
  unreachable

bb3165:                                           ; preds = %bb3158
  br label %bb3166

bb3159:                                           ; preds = %bb3158
  %_7633 = load i64, ptr %j63, align 8, !noundef !3
  %_7634 = load i64, ptr %i47, align 8, !noundef !3
  %_7632 = add i64 %_7633, %_7634
  %_7631 = urem i64 %_7632, 4
  %_7636 = icmp ult i64 %_7631, 4
  br i1 %_7636, label %bb3161, label %panic270

bb3166:                                           ; preds = %bb3164, %bb3165
  %380 = load i64, ptr %j63, align 8, !noundef !3
  %381 = add i64 %380, 1
  store i64 %381, ptr %j63, align 8
  %_7647 = load i64, ptr %j63, align 8, !noundef !3
  %_7646 = icmp ult i64 %_7647, 4
  br i1 %_7646, label %bb3167, label %bb3173

bb3161:                                           ; preds = %bb3159
  %382 = getelementptr inbounds nuw i64, ptr %r, i64 %_7631
  %_7630 = load i64, ptr %382, align 8, !noundef !3
  call void @llvm.lifetime.start.p0(ptr %_16348)
  call void @llvm.memcpy.p0.p0.i64(ptr align 8 %_7638, ptr align 8 @alloc_4ac3c5d41a46e3ab32675db08dd7fc71, i64 32, i1 false)
  call void @llvm.memcpy.p0.p0.i64(ptr align 8 %_16348, ptr align 8 %_7638, i64 32, i1 false)
  %_7639 = load i64, ptr %j63, align 8, !noundef !3
  %_7640 = icmp ult i64 %_7639, 4
  br i1 %_7640, label %bb3162, label %panic271

panic270:                                         ; preds = %bb3159
; call core::panicking::panic_bounds_check
  call void @_RNvNtCs8OG1GeFZzXY_4core9panicking18panic_bounds_check(i64 noundef %_7631, i64 noundef 4, ptr noalias noundef readonly align 8 captures(address, read_provenance) dereferenceable(24) @alloc_318a8e9150e07c5cbdd12b81bfa85a33) #28
  unreachable

bb3162:                                           ; preds = %bb3161
  %383 = getelementptr inbounds nuw i64, ptr %_16348, i64 %_7639
  %_7637 = load i64, ptr %383, align 8, !noundef !3
  %_14464 = zext i64 %_7630 to i128
  %_14468 = zext i64 %_7637 to i128
  %_14465 = mul i128 %_14321, %_14468
  %_14463 = add i128 %_14464, %_14465
  %384 = load i64, ptr %carry60, align 8, !noundef !3
  %_14466 = zext i64 %384 to i128
  %_14462 = add i128 %_14463, %_14466
  %_14467 = lshr i128 %_14462, 64
  %385 = trunc i128 %_14467 to i64
  store i64 %385, ptr %carry60, align 8
  %_7629 = trunc i128 %_14462 to i64
  %_7643 = load i64, ptr %j63, align 8, !noundef !3
  %_7644 = load i64, ptr %i47, align 8, !noundef !3
  %_7642 = add i64 %_7643, %_7644
  %_7641 = urem i64 %_7642, 4
  %_7645 = icmp ult i64 %_7641, 4
  br i1 %_7645, label %bb3164, label %panic272

panic271:                                         ; preds = %bb3161
; call core::panicking::panic_bounds_check
  call void @_RNvNtCs8OG1GeFZzXY_4core9panicking18panic_bounds_check(i64 noundef %_7639, i64 noundef 4, ptr noalias noundef readonly align 8 captures(address, read_provenance) dereferenceable(24) @alloc_41d98e10d851b9e3632a1b50dd5ef0a8) #28
  unreachable

bb3164:                                           ; preds = %bb3162
  %386 = getelementptr inbounds nuw i64, ptr %r, i64 %_7641
  store i64 %_7629, ptr %386, align 8
  call void @llvm.lifetime.end.p0(ptr %_16348)
  br label %bb3166

panic272:                                         ; preds = %bb3162
; call core::panicking::panic_bounds_check
  call void @_RNvNtCs8OG1GeFZzXY_4core9panicking18panic_bounds_check(i64 noundef %_7641, i64 noundef 4, ptr noalias noundef readonly align 8 captures(address, read_provenance) dereferenceable(24) @alloc_3736e7aeed652b81b744fa79f14aba19) #28
  unreachable

bb3173:                                           ; preds = %bb3166
  br label %bb3174

bb3167:                                           ; preds = %bb3166
  %_7652 = load i64, ptr %j63, align 8, !noundef !3
  %_7653 = load i64, ptr %i47, align 8, !noundef !3
  %_7651 = add i64 %_7652, %_7653
  %_7650 = urem i64 %_7651, 4
  %_7655 = icmp ult i64 %_7650, 4
  br i1 %_7655, label %bb3169, label %panic273

bb3174:                                           ; preds = %bb3172, %bb3173
  %387 = load i64, ptr %j63, align 8, !noundef !3
  %388 = add i64 %387, 1
  store i64 %388, ptr %j63, align 8
  %_7666 = load i64, ptr %j63, align 8, !noundef !3
  %_7665 = icmp ult i64 %_7666, 4
  br i1 %_7665, label %bb3175, label %bb3181

bb3169:                                           ; preds = %bb3167
  %389 = getelementptr inbounds nuw i64, ptr %r, i64 %_7650
  %_7649 = load i64, ptr %389, align 8, !noundef !3
  call void @llvm.lifetime.start.p0(ptr %_16349)
  call void @llvm.memcpy.p0.p0.i64(ptr align 8 %_7657, ptr align 8 @alloc_4ac3c5d41a46e3ab32675db08dd7fc71, i64 32, i1 false)
  call void @llvm.memcpy.p0.p0.i64(ptr align 8 %_16349, ptr align 8 %_7657, i64 32, i1 false)
  %_7658 = load i64, ptr %j63, align 8, !noundef !3
  %_7659 = icmp ult i64 %_7658, 4
  br i1 %_7659, label %bb3170, label %panic274

panic273:                                         ; preds = %bb3167
; call core::panicking::panic_bounds_check
  call void @_RNvNtCs8OG1GeFZzXY_4core9panicking18panic_bounds_check(i64 noundef %_7650, i64 noundef 4, ptr noalias noundef readonly align 8 captures(address, read_provenance) dereferenceable(24) @alloc_318a8e9150e07c5cbdd12b81bfa85a33) #28
  unreachable

bb3170:                                           ; preds = %bb3169
  %390 = getelementptr inbounds nuw i64, ptr %_16349, i64 %_7658
  %_7656 = load i64, ptr %390, align 8, !noundef !3
  %_14471 = zext i64 %_7649 to i128
  %_14475 = zext i64 %_7656 to i128
  %_14472 = mul i128 %_14321, %_14475
  %_14470 = add i128 %_14471, %_14472
  %391 = load i64, ptr %carry60, align 8, !noundef !3
  %_14473 = zext i64 %391 to i128
  %_14469 = add i128 %_14470, %_14473
  %_14474 = lshr i128 %_14469, 64
  %392 = trunc i128 %_14474 to i64
  store i64 %392, ptr %carry60, align 8
  %_7648 = trunc i128 %_14469 to i64
  %_7662 = load i64, ptr %j63, align 8, !noundef !3
  %_7663 = load i64, ptr %i47, align 8, !noundef !3
  %_7661 = add i64 %_7662, %_7663
  %_7660 = urem i64 %_7661, 4
  %_7664 = icmp ult i64 %_7660, 4
  br i1 %_7664, label %bb3172, label %panic275

panic274:                                         ; preds = %bb3169
; call core::panicking::panic_bounds_check
  call void @_RNvNtCs8OG1GeFZzXY_4core9panicking18panic_bounds_check(i64 noundef %_7658, i64 noundef 4, ptr noalias noundef readonly align 8 captures(address, read_provenance) dereferenceable(24) @alloc_41d98e10d851b9e3632a1b50dd5ef0a8) #28
  unreachable

bb3172:                                           ; preds = %bb3170
  %393 = getelementptr inbounds nuw i64, ptr %r, i64 %_7660
  store i64 %_7648, ptr %393, align 8
  call void @llvm.lifetime.end.p0(ptr %_16349)
  br label %bb3174

panic275:                                         ; preds = %bb3170
; call core::panicking::panic_bounds_check
  call void @_RNvNtCs8OG1GeFZzXY_4core9panicking18panic_bounds_check(i64 noundef %_7660, i64 noundef 4, ptr noalias noundef readonly align 8 captures(address, read_provenance) dereferenceable(24) @alloc_3736e7aeed652b81b744fa79f14aba19) #28
  unreachable

bb3181:                                           ; preds = %bb3174
  br label %bb3182

bb3175:                                           ; preds = %bb3174
  %_7671 = load i64, ptr %j63, align 8, !noundef !3
  %_7672 = load i64, ptr %i47, align 8, !noundef !3
  %_7670 = add i64 %_7671, %_7672
  %_7669 = urem i64 %_7670, 4
  %_7674 = icmp ult i64 %_7669, 4
  br i1 %_7674, label %bb3177, label %panic276

bb3182:                                           ; preds = %bb3180, %bb3181
  %394 = load i64, ptr %j63, align 8, !noundef !3
  %395 = add i64 %394, 1
  store i64 %395, ptr %j63, align 8
  %_7685 = load i64, ptr %j63, align 8, !noundef !3
  %_7684 = icmp ult i64 %_7685, 4
  br i1 %_7684, label %bb3183, label %bb3189

bb3177:                                           ; preds = %bb3175
  %396 = getelementptr inbounds nuw i64, ptr %r, i64 %_7669
  %_7668 = load i64, ptr %396, align 8, !noundef !3
  call void @llvm.lifetime.start.p0(ptr %_16350)
  call void @llvm.memcpy.p0.p0.i64(ptr align 8 %_7676, ptr align 8 @alloc_4ac3c5d41a46e3ab32675db08dd7fc71, i64 32, i1 false)
  call void @llvm.memcpy.p0.p0.i64(ptr align 8 %_16350, ptr align 8 %_7676, i64 32, i1 false)
  %_7677 = load i64, ptr %j63, align 8, !noundef !3
  %_7678 = icmp ult i64 %_7677, 4
  br i1 %_7678, label %bb3178, label %panic277

panic276:                                         ; preds = %bb3175
; call core::panicking::panic_bounds_check
  call void @_RNvNtCs8OG1GeFZzXY_4core9panicking18panic_bounds_check(i64 noundef %_7669, i64 noundef 4, ptr noalias noundef readonly align 8 captures(address, read_provenance) dereferenceable(24) @alloc_318a8e9150e07c5cbdd12b81bfa85a33) #28
  unreachable

bb3178:                                           ; preds = %bb3177
  %397 = getelementptr inbounds nuw i64, ptr %_16350, i64 %_7677
  %_7675 = load i64, ptr %397, align 8, !noundef !3
  %_14478 = zext i64 %_7668 to i128
  %_14482 = zext i64 %_7675 to i128
  %_14479 = mul i128 %_14321, %_14482
  %_14477 = add i128 %_14478, %_14479
  %398 = load i64, ptr %carry60, align 8, !noundef !3
  %_14480 = zext i64 %398 to i128
  %_14476 = add i128 %_14477, %_14480
  %_14481 = lshr i128 %_14476, 64
  %399 = trunc i128 %_14481 to i64
  store i64 %399, ptr %carry60, align 8
  %_7667 = trunc i128 %_14476 to i64
  %_7681 = load i64, ptr %j63, align 8, !noundef !3
  %_7682 = load i64, ptr %i47, align 8, !noundef !3
  %_7680 = add i64 %_7681, %_7682
  %_7679 = urem i64 %_7680, 4
  %_7683 = icmp ult i64 %_7679, 4
  br i1 %_7683, label %bb3180, label %panic278

panic277:                                         ; preds = %bb3177
; call core::panicking::panic_bounds_check
  call void @_RNvNtCs8OG1GeFZzXY_4core9panicking18panic_bounds_check(i64 noundef %_7677, i64 noundef 4, ptr noalias noundef readonly align 8 captures(address, read_provenance) dereferenceable(24) @alloc_41d98e10d851b9e3632a1b50dd5ef0a8) #28
  unreachable

bb3180:                                           ; preds = %bb3178
  %400 = getelementptr inbounds nuw i64, ptr %r, i64 %_7679
  store i64 %_7667, ptr %400, align 8
  call void @llvm.lifetime.end.p0(ptr %_16350)
  br label %bb3182

panic278:                                         ; preds = %bb3178
; call core::panicking::panic_bounds_check
  call void @_RNvNtCs8OG1GeFZzXY_4core9panicking18panic_bounds_check(i64 noundef %_7679, i64 noundef 4, ptr noalias noundef readonly align 8 captures(address, read_provenance) dereferenceable(24) @alloc_3736e7aeed652b81b744fa79f14aba19) #28
  unreachable

bb3189:                                           ; preds = %bb3182
  br label %bb3190

bb3183:                                           ; preds = %bb3182
  %_7690 = load i64, ptr %j63, align 8, !noundef !3
  %_7691 = load i64, ptr %i47, align 8, !noundef !3
  %_7689 = add i64 %_7690, %_7691
  %_7688 = urem i64 %_7689, 4
  %_7693 = icmp ult i64 %_7688, 4
  br i1 %_7693, label %bb3185, label %panic279

bb3190:                                           ; preds = %bb3188, %bb3189
  %401 = load i64, ptr %j63, align 8, !noundef !3
  %402 = add i64 %401, 1
  store i64 %402, ptr %j63, align 8
  %_7704 = load i64, ptr %j63, align 8, !noundef !3
  %_7703 = icmp ult i64 %_7704, 4
  br i1 %_7703, label %bb3191, label %bb3197

bb3185:                                           ; preds = %bb3183
  %403 = getelementptr inbounds nuw i64, ptr %r, i64 %_7688
  %_7687 = load i64, ptr %403, align 8, !noundef !3
  call void @llvm.lifetime.start.p0(ptr %_16351)
  call void @llvm.memcpy.p0.p0.i64(ptr align 8 %_7695, ptr align 8 @alloc_4ac3c5d41a46e3ab32675db08dd7fc71, i64 32, i1 false)
  call void @llvm.memcpy.p0.p0.i64(ptr align 8 %_16351, ptr align 8 %_7695, i64 32, i1 false)
  %_7696 = load i64, ptr %j63, align 8, !noundef !3
  %_7697 = icmp ult i64 %_7696, 4
  br i1 %_7697, label %bb3186, label %panic280

panic279:                                         ; preds = %bb3183
; call core::panicking::panic_bounds_check
  call void @_RNvNtCs8OG1GeFZzXY_4core9panicking18panic_bounds_check(i64 noundef %_7688, i64 noundef 4, ptr noalias noundef readonly align 8 captures(address, read_provenance) dereferenceable(24) @alloc_318a8e9150e07c5cbdd12b81bfa85a33) #28
  unreachable

bb3186:                                           ; preds = %bb3185
  %404 = getelementptr inbounds nuw i64, ptr %_16351, i64 %_7696
  %_7694 = load i64, ptr %404, align 8, !noundef !3
  %_14485 = zext i64 %_7687 to i128
  %_14489 = zext i64 %_7694 to i128
  %_14486 = mul i128 %_14321, %_14489
  %_14484 = add i128 %_14485, %_14486
  %405 = load i64, ptr %carry60, align 8, !noundef !3
  %_14487 = zext i64 %405 to i128
  %_14483 = add i128 %_14484, %_14487
  %_14488 = lshr i128 %_14483, 64
  %406 = trunc i128 %_14488 to i64
  store i64 %406, ptr %carry60, align 8
  %_7686 = trunc i128 %_14483 to i64
  %_7700 = load i64, ptr %j63, align 8, !noundef !3
  %_7701 = load i64, ptr %i47, align 8, !noundef !3
  %_7699 = add i64 %_7700, %_7701
  %_7698 = urem i64 %_7699, 4
  %_7702 = icmp ult i64 %_7698, 4
  br i1 %_7702, label %bb3188, label %panic281

panic280:                                         ; preds = %bb3185
; call core::panicking::panic_bounds_check
  call void @_RNvNtCs8OG1GeFZzXY_4core9panicking18panic_bounds_check(i64 noundef %_7696, i64 noundef 4, ptr noalias noundef readonly align 8 captures(address, read_provenance) dereferenceable(24) @alloc_41d98e10d851b9e3632a1b50dd5ef0a8) #28
  unreachable

bb3188:                                           ; preds = %bb3186
  %407 = getelementptr inbounds nuw i64, ptr %r, i64 %_7698
  store i64 %_7686, ptr %407, align 8
  call void @llvm.lifetime.end.p0(ptr %_16351)
  br label %bb3190

panic281:                                         ; preds = %bb3186
; call core::panicking::panic_bounds_check
  call void @_RNvNtCs8OG1GeFZzXY_4core9panicking18panic_bounds_check(i64 noundef %_7698, i64 noundef 4, ptr noalias noundef readonly align 8 captures(address, read_provenance) dereferenceable(24) @alloc_3736e7aeed652b81b744fa79f14aba19) #28
  unreachable

bb3197:                                           ; preds = %bb3190
  br label %bb3198

bb3191:                                           ; preds = %bb3190
  %_7709 = load i64, ptr %j63, align 8, !noundef !3
  %_7710 = load i64, ptr %i47, align 8, !noundef !3
  %_7708 = add i64 %_7709, %_7710
  %_7707 = urem i64 %_7708, 4
  %_7712 = icmp ult i64 %_7707, 4
  br i1 %_7712, label %bb3193, label %panic282

bb3198:                                           ; preds = %bb3196, %bb3197
  %408 = load i64, ptr %j63, align 8, !noundef !3
  %409 = add i64 %408, 1
  store i64 %409, ptr %j63, align 8
  call void @llvm.lifetime.end.p0(ptr %j63)
  %_7722 = load i64, ptr %i47, align 8, !noundef !3
  %_7723 = icmp ult i64 %_7722, 4
  br i1 %_7723, label %bb3199, label %panic285

bb3193:                                           ; preds = %bb3191
  %410 = getelementptr inbounds nuw i64, ptr %r, i64 %_7707
  %_7706 = load i64, ptr %410, align 8, !noundef !3
  call void @llvm.lifetime.start.p0(ptr %_16352)
  call void @llvm.memcpy.p0.p0.i64(ptr align 8 %_7714, ptr align 8 @alloc_4ac3c5d41a46e3ab32675db08dd7fc71, i64 32, i1 false)
  call void @llvm.memcpy.p0.p0.i64(ptr align 8 %_16352, ptr align 8 %_7714, i64 32, i1 false)
  %_7715 = load i64, ptr %j63, align 8, !noundef !3
  %_7716 = icmp ult i64 %_7715, 4
  br i1 %_7716, label %bb3194, label %panic283

panic282:                                         ; preds = %bb3191
; call core::panicking::panic_bounds_check
  call void @_RNvNtCs8OG1GeFZzXY_4core9panicking18panic_bounds_check(i64 noundef %_7707, i64 noundef 4, ptr noalias noundef readonly align 8 captures(address, read_provenance) dereferenceable(24) @alloc_318a8e9150e07c5cbdd12b81bfa85a33) #28
  unreachable

bb3194:                                           ; preds = %bb3193
  %411 = getelementptr inbounds nuw i64, ptr %_16352, i64 %_7715
  %_7713 = load i64, ptr %411, align 8, !noundef !3
  %_14492 = zext i64 %_7706 to i128
  %_14496 = zext i64 %_7713 to i128
  %_14493 = mul i128 %_14321, %_14496
  %_14491 = add i128 %_14492, %_14493
  %412 = load i64, ptr %carry60, align 8, !noundef !3
  %_14494 = zext i64 %412 to i128
  %_14490 = add i128 %_14491, %_14494
  %_14495 = lshr i128 %_14490, 64
  %413 = trunc i128 %_14495 to i64
  store i64 %413, ptr %carry60, align 8
  %_7705 = trunc i128 %_14490 to i64
  %_7719 = load i64, ptr %j63, align 8, !noundef !3
  %_7720 = load i64, ptr %i47, align 8, !noundef !3
  %_7718 = add i64 %_7719, %_7720
  %_7717 = urem i64 %_7718, 4
  %_7721 = icmp ult i64 %_7717, 4
  br i1 %_7721, label %bb3196, label %panic284

panic283:                                         ; preds = %bb3193
; call core::panicking::panic_bounds_check
  call void @_RNvNtCs8OG1GeFZzXY_4core9panicking18panic_bounds_check(i64 noundef %_7715, i64 noundef 4, ptr noalias noundef readonly align 8 captures(address, read_provenance) dereferenceable(24) @alloc_41d98e10d851b9e3632a1b50dd5ef0a8) #28
  unreachable

bb3196:                                           ; preds = %bb3194
  %414 = getelementptr inbounds nuw i64, ptr %r, i64 %_7717
  store i64 %_7705, ptr %414, align 8
  call void @llvm.lifetime.end.p0(ptr %_16352)
  br label %bb3198

panic284:                                         ; preds = %bb3194
; call core::panicking::panic_bounds_check
  call void @_RNvNtCs8OG1GeFZzXY_4core9panicking18panic_bounds_check(i64 noundef %_7717, i64 noundef 4, ptr noalias noundef readonly align 8 captures(address, read_provenance) dereferenceable(24) @alloc_3736e7aeed652b81b744fa79f14aba19) #28
  unreachable

bb3199:                                           ; preds = %bb3198
  %415 = getelementptr inbounds nuw i64, ptr %r, i64 %_7722
  %416 = load i64, ptr %carry60, align 8, !noundef !3
  store i64 %416, ptr %415, align 8
  br label %bb3201

panic285:                                         ; preds = %bb3198
; call core::panicking::panic_bounds_check
  call void @_RNvNtCs8OG1GeFZzXY_4core9panicking18panic_bounds_check(i64 noundef %_7722, i64 noundef 4, ptr noalias noundef readonly align 8 captures(address, read_provenance) dereferenceable(24) @alloc_e07dad0bc349823f26226a80bb150e8a) #28
  unreachable

bb3400:                                           ; preds = %bb3201
  br label %bb3401

bb3202:                                           ; preds = %bb3201
  %_7728 = load i64, ptr %i47, align 8, !noundef !3
  %_7729 = icmp ult i64 %_7728, 4
  br i1 %_7729, label %bb3203, label %panic286

bb3401:                                           ; preds = %bb3399, %bb3400
  %417 = load i64, ptr %i47, align 8, !noundef !3
  %418 = add i64 %417, 1
  store i64 %418, ptr %i47, align 8
  %_8207 = load i64, ptr %i47, align 8, !noundef !3
  %_8206 = icmp ult i64 %_8207, 4
  br i1 %_8206, label %bb3402, label %bb3600

bb3203:                                           ; preds = %bb3202
  %419 = getelementptr inbounds nuw i64, ptr %r, i64 %_7728
  %_7727 = load i64, ptr %419, align 8, !noundef !3
  %k287 = mul i64 %_7727, -8659850874718887031
  store i64 0, ptr %carry64, align 8
  %_7732 = load i64, ptr %i47, align 8, !noundef !3
  %_7733 = icmp ult i64 %_7732, 4
  br i1 %_7733, label %bb3204, label %panic288

panic286:                                         ; preds = %bb3202
; call core::panicking::panic_bounds_check
  call void @_RNvNtCs8OG1GeFZzXY_4core9panicking18panic_bounds_check(i64 noundef %_7728, i64 noundef 4, ptr noalias noundef readonly align 8 captures(address, read_provenance) dereferenceable(24) @alloc_ffde8619649764ddfa94b9917826fa38) #28
  unreachable

bb3204:                                           ; preds = %bb3203
  %420 = getelementptr inbounds nuw i64, ptr %r, i64 %_7732
  %_7731 = load i64, ptr %420, align 8, !noundef !3
  call void @llvm.lifetime.start.p0(ptr %_16353)
  call void @llvm.memcpy.p0.p0.i64(ptr align 8 %_7735, ptr align 8 @alloc_4ac3c5d41a46e3ab32675db08dd7fc71, i64 32, i1 false)
  call void @llvm.memcpy.p0.p0.i64(ptr align 8 %_16353, ptr align 8 %_7735, i64 32, i1 false)
  %421 = getelementptr inbounds nuw i64, ptr %_16353, i64 0
  %_7734 = load i64, ptr %421, align 8, !noundef !3
  %_14499 = zext i64 %_7731 to i128
  %_14503 = zext i64 %k287 to i128
  %_14504 = zext i64 %_7734 to i128
  %_14500 = mul i128 %_14503, %_14504
  %_14498 = add i128 %_14499, %_14500
  %422 = load i64, ptr %carry64, align 8, !noundef !3
  %_14501 = zext i64 %422 to i128
  %_14497 = add i128 %_14498, %_14501
  %_14502 = lshr i128 %_14497, 64
  %423 = trunc i128 %_14502 to i64
  store i64 %423, ptr %carry64, align 8
  call void @llvm.lifetime.end.p0(ptr %_16353)
  call void @llvm.lifetime.start.p0(ptr %_7738)
  br label %bb4888

panic288:                                         ; preds = %bb3203
; call core::panicking::panic_bounds_check
  call void @_RNvNtCs8OG1GeFZzXY_4core9panicking18panic_bounds_check(i64 noundef %_7732, i64 noundef 4, ptr noalias noundef readonly align 8 captures(address, read_provenance) dereferenceable(24) @alloc_b6d549c2b3ce344d3ee993619e732d16) #28
  unreachable

bb4888:                                           ; preds = %bb3204
  %424 = getelementptr inbounds i8, ptr %_7738, i64 8
  store i64 3, ptr %424, align 8
  store i64 1, ptr %_7738, align 8
  %425 = getelementptr inbounds i8, ptr %_7738, i64 8
  %426 = load i64, ptr %425, align 8, !noundef !3
  store i64 %426, ptr %total_iters65, align 8
  br label %bb4889

bb4889:                                           ; preds = %bb4887, %bb4888
  call void @llvm.lifetime.end.p0(ptr %_7738)
  %_7740 = load i64, ptr %total_iters65, align 8, !noundef !3
  %num_loops289 = udiv i64 %_7740, 12
  %427 = load i64, ptr %total_iters65, align 8, !noundef !3
  %remainder290 = urem i64 %427, 12
  store i64 0, ptr %iter112, align 8
  br label %bb3206

bb4887:                                           ; No predecessors!
  store i64 0, ptr %total_iters65, align 8
  br label %bb4889

bb3206:                                           ; preds = %bb3302, %bb4889
  call void @llvm.lifetime.start.p0(ptr %_7742)
  %_14510 = load i64, ptr %iter112, align 8, !noundef !3
  %_14507 = icmp ult i64 %_14510, %num_loops289
  br i1 %_14507, label %bb4890, label %bb4891

bb4891:                                           ; preds = %bb3206
  call void @llvm.lifetime.end.p0(ptr %_7742)
  call void @llvm.lifetime.start.p0(ptr %j67)
  %_7975 = mul i64 %num_loops289, 12
  %428 = add i64 1, %_7975
  store i64 %428, ptr %j67, align 8
  %_7977 = load i64, ptr %j67, align 8, !noundef !3
  %_7976 = icmp ult i64 %_7977, 4
  br i1 %_7976, label %bb3303, label %bb3304

bb4890:                                           ; preds = %bb3206
  %_14508 = load i64, ptr %iter112, align 8, !noundef !3
  %429 = add nuw i64 %_14508, 1
  store i64 %429, ptr %iter112, align 8
  %430 = getelementptr inbounds i8, ptr %_7742, i64 8
  store i64 %_14508, ptr %430, align 8
  store i64 1, ptr %_7742, align 8
  %431 = getelementptr inbounds i8, ptr %_7742, i64 8
  %j881 = load i64, ptr %431, align 8, !noundef !3
  call void @llvm.lifetime.start.p0(ptr %j66)
  %_7745 = mul i64 %j881, 12
  %432 = add i64 1, %_7745
  store i64 %432, ptr %j66, align 8
  %_7747 = load i64, ptr %j66, align 8, !noundef !3
  %_7746 = icmp ult i64 %_7747, 4
  br i1 %_7746, label %bb3207, label %bb3213

bb3304:                                           ; preds = %bb4891
  br label %bb3310

